(dp1
S'talk_transcript'
p2
(lp3
(lp4
VMockingbirds are badass.
p5
aa(lp6
V(Laughter)
p7
aVThey are.
p8
aVMockingbirds \u2014 that's Mimus polyglottos \u2014
p9
aVare the emcees of the animal kingdom.
p10
aa(lp11
VThey listen and mimic and remix what they like.
p12
aVThey rock the mic outside my window every morning.
p13
aVI can hear them sing the sounds of the car alarms
p14
aVlike they were songs of spring.
p15
aVI mean, if you can talk it, a mockingbird can squawk it.
p16
aVSo check it, I'm gonna to catch mockingbirds.
p17
aVI'm going to trap mockingbirds all across the nation
p18
aVand put them gently into mason jars like mockingbird Molotov cocktails.
p19
aa(lp20
V(Laughter)
p21
aa(lp22
VYeah. And as I drive through a neighborhood,
p23
aVsay, where people got-a-lotta, I'll take a mockingbird I caught
p24
aVin a neighborhood where folks ain't got nada and just let it go, you know.
p25
aVUp goes the bird, out come the words, "Juanito, Juanito,
p26
aVvente a comer mi hijo!"
p27
aVOh, I'm going to be the Johnny Appleseed of sound.
p28
aa(lp29
V(Laughter)
p30
aa(lp31
VCruising random city streets, rocking a drop-top Cadillac
p32
aVwith a big backseat, packing like 13 brown paper Walmart bags
p33
aVfull of loaded mockingbirds, and I'll get everybody.
p34
aa(lp35
V(Laughter)
p36
aa(lp37
VI'll get the nitwit on the network news saying,
p38
aV"We'll be back in a moment with more on the crisis."
p39
aVI'll get some asshole at a watering hole asking what brand the ice is.
p40
aVI'll get that lady at the laundromat who always seems to know what being nice is.
p41
aVI'll get your postman making dinner plans.
p42
aVI'll get the last time you lied.
p43
aVI'll get, "Baby, just give me the frickin' TV guide."
p44
aVI'll get a lonely, little sentence with real error in it,
p45
aV"Yeah, I guess I could come inside, but only for a minute."
p46
aa(lp47
V(Laughter)
p48
aa(lp49
VI'll get an ESL class in Chinatown learning "It's Raining, It's Pouring."
p50
aVI'll put a mockingbird on a late-night train just to get an old man snoring.
p51
aVI'll get your ex-lover telling someone else, "Good morning."
p52
aVI'll get everyone's good mornings.
p53
aVI don't care how you make 'em.
p54
aVAloha. Konichiwa. Shalom. Ah-Salam Alaikum.
p55
aVEverybody means everybody, means everybody here.
p56
aVAnd so maybe I'll build a gilded cage.
p57
aVI'll line the bottom with old notebook pages.
p58
aVInside it, I will place a mockingbird for \u2014
p59
aVshort explanation, hippie parents.
p60
aa(lp61
V(Laughter)
p62
aa(lp63
VWhat does a violin have to do with technology?
p64
aVWhere in the world is this world heading?
p65
aVOn one end, gold bars \u2014
p66
aVon the other, an entire planet.
p67
aVWe are 12 billion light years from the edge.
p68
aVThat's a guess.
p69
aVSpace is length and breadth continued indefinitely,
p70
aVbut you cannot buy a ticket to travel commercially to space in America
p71
aVbecause countries are beginning to eat like us, live like us and die like us.
p72
aVYou might wanna avert your gaze, because that
p73
aVis a newt about to regenerate its limb,
p74
aVand shaking hands spreads more germs than kissing.
p75
aVThere's about 10 million phage per job.
p76
aVIt's a very strange world inside a nanotube.
p77
aVWomen can talk; black men ski; white men build strong buildings;
p78
aVwe build strong suns.
p79
aVThe surface of the Earth is absolutely riddled with holes,
p80
aVand here we are, right in the middle.
p81
aa(lp82
V(Laughter)
p83
aa(lp84
VIt is the voice of life that calls us to come and learn.
p85
aVWhen all the little mockingbirds fly away,
p86
aVthey're going to sound like the last four days.
p87
aVI will get uptown gurus, downtown teachers,
p88
aVbroke-ass artists and dealers, and Filipino preachers, leaf blowers,
p89
aVbartenders, boob-job doctors, hooligans, garbage men,
p90
aVyour local Congressmen in the spotlight, guys in the overhead helicopters.
p91
aVEverybody gets heard.
p92
aVEverybody gets this one, honest mockingbird as a witness.
p93
aVAnd I'm on this.
p94
aVI'm on this 'til the whole thing spreads,
p95
aVwith chat rooms and copycats and moms maybe tucking kids into bed
p96
aVsinging, "Hush, little baby, don't say a word.
p97
aVWait for the man with the mockingbird."
p98
aa(lp99
V(Laughter)
p100
aa(lp101
VYeah. And then come the news crews, and
p102
aVthe man-in-the-street interviews, and the letters to the editor.
p103
aVEverybody asking, just who is responsible for this citywide,
p104
aVnationwide mockingbird cacophony, and somebody finally is going to tip
p105
aVthe City Council of Monterey, California off to me,
p106
aVand they'll offer me a key to the city.
p107
aVA gold-plated, oversized key to the city
p108
aVand that is all I need, 'cause if I get that, I can unlock the air.
p109
aVI'll listen for what's missing, and I'll put it there.
p110
aVThank you, TED.
p111
aa(lp112
V(Applause)
p113
aa(lp114
VChris Anderson: Wow.
p115
aa(lp116
V(Applause)
p117
aa(lp118
VWow.
p119
aa(lp120
V(Applause)
p121
aasS'transcript_micsec'
p122
(lp123
I12000
aI14000
aI21000
aI40000
aI41000
aI57000
aI58000
aI67000
aI68000
aI88000
aI89000
aI117000
aI118000
aI167000
aI168000
aI204000
aI205000
aI231000
aI232000
aI233000
aI242000
aI243000
asS'talk_meta'
p124
(dp125
S'ratings'
p126
(dp127
S'ingenious'
p128
I194
sS'funny'
p129
I170
sS'inspiring'
p130
I124
sS'ok'
p131
I17
sS'fascinating'
p132
I117
sS'total_count'
p133
I1037
sS'persuasive'
p134
I8
sS'longwinded'
p135
I7
sS'informative'
p136
I4
sS'beautiful'
p137
I227
sS'jaw-dropping'
p138
I134
sS'obnoxious'
p139
I11
sS'confusing'
p140
I8
sS'courageous'
p141
I11
sS'unconvincing'
p142
I5
ssS'author'
p143
V_Rives;
p144
sS'url'
p145
S'https://www.ted.com/talks/rives_remixes_ted2006'
p146
sS'vidlen'
p147
I251
sS'totalviews'
p148
I644619
sS'title'
p149
VA mockingbird remix of TED2006
p150
sS'downloadlink'
p151
Vhttps://download.ted.com/talks/Rives_Mockingbird_2006.mp4?apikey=489b859150fc58263f17110eeb44ed5fba4a3b22
p152
sS'datepublished'
p153
cdatetime
datetime
p154
(S'\x07\xd7\x04\t\x13;\x00\x00\x00\x00'
tRp155
sS'datefilmed'
p156
g154
(S'\x07\xd7\x04\t\x13;\x00\x00\x00\x00'
tRp157
sS'alldata_JSON'
p158
S'{"viewed_count": 644619, "speakers": [{"description": "Performance poet, multimedia artist", "firstname": "", "title": "", "lastname": "Rives", "middleinitial": "", "whylisten": "<p>Part poet, part storyteller, part philosopher, Rives is the co-host of TEDActive as well as a frequent TED speaker. On stage, his poems burst in many directions, exposing multiple layers and unexpected treats: childhood memories, grown-up humor, notions of love and lust, of what is lost forever and of what&#39;s still out there waiting to unfold.&nbsp;<a href=\\"http://vimeo.com/66507747\\" target=\\"_blank\\">Chimborazo</a>.</p><p>A regular on HBO&#39;s <em>Def Poetry Jam</em>, Rives also starred alongside model Bar Refaeli in the 2008 Bravo special  <a href=\\"http://www.bravotv.com/blogs/The_Dish/index.php?article=/2008/10/ironic_iconic_america.php\\" target=\\"_blank\\"><em>Ironic Iconic America</em></a>, touring the United States on a &quot;roller coaster ride through the eye-popping panorama of American pop culture.&quot; Flat pages can&#39;t contain his storytelling, even when paper is his medium. The pop-up books he creates for children unfold with surprise: <a href=\\"http://www.simonsays.com/content/book.cfm?tab=1&amp;pid=511215\\" target=\\"_blank\\"><em>The Christmas Pop-Up Present</em></a>  expands to reveal moving parts, hidden areas and miniature booklets inside.&nbsp;</p><p>His latest project&mdash;t<a href=\\"http://fourinthemorning.com/\\" target=\\"_blank\\">he Museum of Four in the Morning</a>&mdash;is an ode to a time that may well be part of a global conspiracy. In a good way. &nbsp;</p>", "slug": "rives", "whotheyare": "Performance artist and storyteller Rives has been called \\"the first 2.0 poet,\\" using images, video and technology to bring his words to life. ", "whatotherssay": "", "id": 27, "photo_url": "https://pe.tedcdn.com/images/ted/ae0c178f2ef16b45c2791e5608ef84fd0f3d5850_254x191.jpg"}], "current_talk": 108, "description": "Rives recaps the most memorable moments of TED2006 in the free-spirited rhyming verse of a fantastical mockingbird lullaby.", "language": "en", "url": "https://www.ted.com/talks/rives_remixes_ted2006", "media": {"internal": {"podcast-high-en": {"uri": "https://download.ted.com/talks/Rives_Mockingbird_2006-480p-en.mp4?apikey=489b859150fc58263f17110eeb44ed5fba4a3b22", "mime_type": "video/mp4", "filesize_bytes": 29882554}, "podcast-low-en": {"uri": "https://download.ted.com/talks/Rives_Mockingbird_2006-low-en.mp4?apikey=489b859150fc58263f17110eeb44ed5fba4a3b22", "mime_type": "video/mp4", "filesize_bytes": 5894733}, "podcast-high": {"uri": "https://download.ted.com/talks/Rives_Mockingbird_2006-480p.mp4?apikey=489b859150fc58263f17110eeb44ed5fba4a3b22", "mime_type": "video/mp4", "filesize_bytes": 29872202}, "180k": {"uri": "https://download.ted.com/talks/Rives_Mockingbird_2006-180k.mp4?apikey=489b859150fc58263f17110eeb44ed5fba4a3b22", "mime_type": "video/mp4", "filesize_bytes": 5816580}, "64k": {"uri": "https://download.ted.com/talks/Rives_Mockingbird_2006-64k.mp4?apikey=489b859150fc58263f17110eeb44ed5fba4a3b22", "mime_type": "video/mp4", "filesize_bytes": 2119757}, "1500k": {"uri": "https://download.ted.com/talks/Rives_Mockingbird_2006-1500k.mp4?apikey=489b859150fc58263f17110eeb44ed5fba4a3b22", "mime_type": "video/mp4", "filesize_bytes": 45296016}, "450k": {"uri": "https://download.ted.com/talks/Rives_Mockingbird_2006-450k.mp4?apikey=489b859150fc58263f17110eeb44ed5fba4a3b22", "mime_type": "video/mp4", "filesize_bytes": 14450963}, "podcast-regular": {"uri": "https://download.ted.com/talks/Rives_Mockingbird_2006.mp4?apikey=489b859150fc58263f17110eeb44ed5fba4a3b22", "mime_type": "video/mp4", "filesize_bytes": 14508320}, "950k": {"uri": "https://download.ted.com/talks/Rives_Mockingbird_2006-950k.mp4?apikey=489b859150fc58263f17110eeb44ed5fba4a3b22", "mime_type": "video/mp4", "filesize_bytes": 29765513}, "audio-podcast": {"uri": "https://download.ted.com/talks/Rives_Mockingbird_2006.mp3?apikey=489b859150fc58263f17110eeb44ed5fba4a3b22", "mime_type": "audio/mp3", "filesize_bytes": 1962073}, "podcast-light": {"uri": "https://download.ted.com/talks/Rives_Mockingbird_2006-light.mp4?apikey=489b859150fc58263f17110eeb44ed5fba4a3b22", "mime_type": "video/mp4", "filesize_bytes": 2216254}, "320k": {"uri": "https://download.ted.com/talks/Rives_Mockingbird_2006-320k.mp4?apikey=489b859150fc58263f17110eeb44ed5fba4a3b22", "mime_type": "video/mp4", "filesize_bytes": 10308191}, "600k": {"uri": "https://download.ted.com/talks/Rives_Mockingbird_2006-600k.mp4?apikey=489b859150fc58263f17110eeb44ed5fba4a3b22", "mime_type": "video/mp4", "filesize_bytes": 19086839}}}, "comments": {"count": 58, "id": 102, "talk_id": 108}, "slug": "rives_remixes_ted2006", "threadId": 102, "talks": [{"event": "TED2006", "player_talks": [{"event": "TED2006", "slug": "rives_remixes_ted2006", "filmed": 1138838400, "targeting": {"event": "TED2006", "tag": "entertainment,memory,performance,poetry,spoken word,storytelling", "id": 108, "talk": "rives_remixes_ted2006", "year": "2006"}, "adDuration": "3.33", "external": null, "title": "A mockingbird remix of TED2006", "postAdDuration": "0.83", "published": 1176163140, "thumb": "https://pi.tedcdn.com/r/pe.tedcdn.com/images/ted/1292_480x360.jpg?quality=89&w=600", "name": "Rives: A mockingbird remix of TED2006", "languages": [{"languageCode": "ar", "endonym": "\\u0627\\u0644\\u0639\\u0631\\u0628\\u064a\\u0629", "isRtl": true, "ianaCode": "ar", "languageName": "Arabic"}, {"languageCode": "bg", "endonym": "\\u0431\\u044a\\u043b\\u0433\\u0430\\u0440\\u0441\\u043a\\u0438", "isRtl": false, "ianaCode": "bg", "languageName": "Bulgarian"}, {"languageCode": "ca", "endonym": "Catal\\u00e0", "isRtl": false, "ianaCode": "ca", "languageName": "Catalan"}, {"languageCode": "zh-cn", "endonym": "\\u4e2d\\u6587 (\\u7b80\\u4f53)", "isRtl": false, "ianaCode": "zh-Hans", "languageName": "Chinese, Simplified"}, {"languageCode": "zh-tw", "endonym": "\\u4e2d\\u6587 (\\u7e41\\u9ad4)", "isRtl": false, "ianaCode": "zh-Hant", "languageName": "Chinese, Traditional"}, {"languageCode": "hr", "endonym": "Hrvatski", "isRtl": false, "ianaCode": "hr", "languageName": "Croatian"}, {"languageCode": "cs", "endonym": "\\u010ce\\u0161tina", "isRtl": false, "ianaCode": "cs", "languageName": "Czech"}, {"languageCode": "nl", "endonym": "Nederlands", "isRtl": false, "ianaCode": "nl", "languageName": "Dutch"}, {"languageCode": "en", "endonym": "English", "isRtl": false, "ianaCode": "en", "languageName": "English"}, {"languageCode": "fr", "endonym": "Fran\\u00e7ais", "isRtl": false, "ianaCode": "fr", "languageName": "French"}, {"languageCode": "de", "endonym": "Deutsch", "isRtl": false, "ianaCode": "de", "languageName": "German"}, {"languageCode": "he", "endonym": "\\u05e2\\u05d1\\u05e8\\u05d9\\u05ea", "isRtl": true, "ianaCode": "he", "languageName": "Hebrew"}, {"languageCode": "id", "endonym": "Bahasa Indonesia", "isRtl": false, "ianaCode": "id", "languageName": "Indonesian"}, {"languageCode": "it", "endonym": "Italiano", "isRtl": false, "ianaCode": "it", "languageName": "Italian"}, {"languageCode": "ja", "endonym": "\\u65e5\\u672c\\u8a9e", "isRtl": false, "ianaCode": "ja", "languageName": "Japanese"}, {"languageCode": "ko", "endonym": "\\ud55c\\uad6d\\uc5b4", "isRtl": false, "ianaCode": "ko", "languageName": "Korean"}, {"languageCode": "fa", "endonym": "\\u0641\\u0627\\u0631\\u0633\\u0649", "isRtl": true, "ianaCode": "fa", "languageName": "Persian"}, {"languageCode": "pl", "endonym": "Polski", "isRtl": false, "ianaCode": "pl", "languageName": "Polish"}, {"languageCode": "pt-br", "endonym": "Portugu\\u00eas brasileiro", "isRtl": false, "ianaCode": "pt-BR", "languageName": "Portuguese, Brazilian"}, {"languageCode": "ro", "endonym": "Rom\\u00e2n\\u0103", "isRtl": false, "ianaCode": "ro", "languageName": "Romanian"}, {"languageCode": "ru", "endonym": "\\u0420\\u0443\\u0441\\u0441\\u043a\\u0438\\u0439", "isRtl": false, "ianaCode": "ru", "languageName": "Russian"}, {"languageCode": "sl", "endonym": "Sloven\\u0161\\u010dina", "isRtl": false, "ianaCode": "sl", "languageName": "Slovenian"}, {"languageCode": "es", "endonym": "Espa\\u00f1ol", "isRtl": false, "ianaCode": "es", "languageName": "Spanish"}, {"languageCode": "tr", "endonym": "T\\u00fcrk\\u00e7e", "isRtl": false, "ianaCode": "tr", "languageName": "Turkish"}, {"languageCode": "vi", "endonym": "Ti\\u1ebfng Vi\\u1ec7t", "isRtl": false, "ianaCode": "vi", "languageName": "Vietnamese"}], "nativeLanguage": "en", "tags": ["entertainment", "memory", "performance", "poetry", "spoken word", "storytelling"], "speaker": "Rives", "isSubtitleRequired": false, "introDuration": 11.82, "duration": 251, "id": 108, "resources": {"h264": [{"bitrate": 320, "file": "https://download.ted.com/talks/Rives_Mockingbird_2006-320k.mp4?dnt"}], "hls": {"maiTargeting": {"event": "TED2006", "tag": "entertainment,memory,performance,poetry,spoken word,storytelling", "id": 108, "talk": "rives_remixes_ted2006", "year": "2006"}, "metadata": "https://hls.ted.com/talks/108.json", "stream": "https://hls.ted.com/talks/108.m3u8", "adUrl": "https://pubads.g.doubleclick.net/gampad/ads?ciu_szs=300x250%2C512x288%2C120x60%2C320x50%2C6x7%2C6x8&correlator=%5Bcorrelator%5D&cust_params=event%3DTED2006%26id%3D108%26tag%3Dentertainment%2Cmemory%2Cperformance%2Cpoetry%2Cspoken%2Bword%2Cstorytelling%26talk%3Drives_remixes_ted2006%26year%3D2006&env=vp&gdfp_req=1&impl=s&iu=%2F5641%2Fmobile%2Fios%2Fweb&output=xml_vast2&sz=640x360&unviewed_position_start=1&url=%5Breferrer%5D"}}, "canonical": "https://www.ted.com/talks/rives_remixes_ted2006"}], "hero_load": "https://pi.tedcdn.com/r/pe.tedcdn.com/images/ted/1292_480x360.jpg?q=50&w=15", "duration": 251, "id": 108, "ratings": [{"count": 194, "id": 9, "name": "Ingenious"}, {"count": 170, "id": 7, "name": "Funny"}, {"count": 227, "id": 1, "name": "Beautiful"}, {"count": 124, "id": 10, "name": "Inspiring"}, {"count": 7, "id": 11, "name": "Longwinded"}, {"count": 117, "id": 22, "name": "Fascinating"}, {"count": 5, "id": 21, "name": "Unconvincing"}, {"count": 8, "id": 2, "name": "Confusing"}, {"count": 134, "id": 23, "name": "Jaw-dropping"}, {"count": 11, "id": 3, "name": "Courageous"}, {"count": 11, "id": 26, "name": "Obnoxious"}, {"count": 17, "id": 25, "name": "OK"}, {"count": 8, "id": 24, "name": "Persuasive"}, {"count": 4, "id": 8, "name": "Informative"}], "speakers": [{"description": "Performance poet, multimedia artist", "firstname": "", "title": "", "lastname": "Rives", "middleinitial": "", "whylisten": "<p>Part poet, part storyteller, part philosopher, Rives is the co-host of TEDActive as well as a frequent TED speaker. On stage, his poems burst in many directions, exposing multiple layers and unexpected treats: childhood memories, grown-up humor, notions of love and lust, of what is lost forever and of what&#39;s still out there waiting to unfold.&nbsp;<a href=\\"http://vimeo.com/66507747\\" target=\\"_blank\\">Chimborazo</a>.</p><p>A regular on HBO&#39;s <em>Def Poetry Jam</em>, Rives also starred alongside model Bar Refaeli in the 2008 Bravo special  <a href=\\"http://www.bravotv.com/blogs/The_Dish/index.php?article=/2008/10/ironic_iconic_america.php\\" target=\\"_blank\\"><em>Ironic Iconic America</em></a>, touring the United States on a &quot;roller coaster ride through the eye-popping panorama of American pop culture.&quot; Flat pages can&#39;t contain his storytelling, even when paper is his medium. The pop-up books he creates for children unfold with surprise: <a href=\\"http://www.simonsays.com/content/book.cfm?tab=1&amp;pid=511215\\" target=\\"_blank\\"><em>The Christmas Pop-Up Present</em></a>  expands to reveal moving parts, hidden areas and miniature booklets inside.&nbsp;</p><p>His latest project&mdash;t<a href=\\"http://fourinthemorning.com/\\" target=\\"_blank\\">he Museum of Four in the Morning</a>&mdash;is an ode to a time that may well be part of a global conspiracy. In a good way. &nbsp;</p>", "slug": "rives", "whotheyare": "Performance artist and storyteller Rives has been called \\"the first 2.0 poet,\\" using images, video and technology to bring his words to life. ", "whatotherssay": "", "id": 27, "photo_url": "https://pe.tedcdn.com/images/ted/ae0c178f2ef16b45c2791e5608ef84fd0f3d5850_254x191.jpg"}], "title": "A mockingbird remix of TED2006", "take_action": null, "comments": 102, "more_resources": null, "hero": "https://pe.tedcdn.com/images/ted/1292_480x360.jpg", "description": "Rives recaps the most memorable moments of TED2006 in the free-spirited rhyming verse of a fantastical mockingbird lullaby.", "tags": ["entertainment", "memory", "performance", "poetry", "spoken word", "storytelling"], "downloads": {"languages": [{"languageCode": "ar", "endonym": "\\u0627\\u0644\\u0639\\u0631\\u0628\\u064a\\u0629", "isRtl": true, "ianaCode": "ar", "languageName": "Arabic"}, {"languageCode": "bg", "endonym": "\\u0431\\u044a\\u043b\\u0433\\u0430\\u0440\\u0441\\u043a\\u0438", "isRtl": false, "ianaCode": "bg", "languageName": "Bulgarian"}, {"languageCode": "ca", "endonym": "Catal\\u00e0", "isRtl": false, "ianaCode": "ca", "languageName": "Catalan"}, {"languageCode": "zh-cn", "endonym": "\\u4e2d\\u6587 (\\u7b80\\u4f53)", "isRtl": false, "ianaCode": "zh-Hans", "languageName": "Chinese, Simplified"}, {"languageCode": "zh-tw", "endonym": "\\u4e2d\\u6587 (\\u7e41\\u9ad4)", "isRtl": false, "ianaCode": "zh-Hant", "languageName": "Chinese, Traditional"}, {"languageCode": "hr", "endonym": "Hrvatski", "isRtl": false, "ianaCode": "hr", "languageName": "Croatian"}, {"languageCode": "cs", "endonym": "\\u010ce\\u0161tina", "isRtl": false, "ianaCode": "cs", "languageName": "Czech"}, {"languageCode": "nl", "endonym": "Nederlands", "isRtl": false, "ianaCode": "nl", "languageName": "Dutch"}, {"languageCode": "en", "endonym": "English", "isRtl": false, "ianaCode": "en", "languageName": "English"}, {"languageCode": "fr", "endonym": "Fran\\u00e7ais", "isRtl": false, "ianaCode": "fr", "languageName": "French"}, {"languageCode": "de", "endonym": "Deutsch", "isRtl": false, "ianaCode": "de", "languageName": "German"}, {"languageCode": "he", "endonym": "\\u05e2\\u05d1\\u05e8\\u05d9\\u05ea", "isRtl": true, "ianaCode": "he", "languageName": "Hebrew"}, {"languageCode": "id", "endonym": "Bahasa Indonesia", "isRtl": false, "ianaCode": "id", "languageName": "Indonesian"}, {"languageCode": "it", "endonym": "Italiano", "isRtl": false, "ianaCode": "it", "languageName": "Italian"}, {"languageCode": "ja", "endonym": "\\u65e5\\u672c\\u8a9e", "isRtl": false, "ianaCode": "ja", "languageName": "Japanese"}, {"languageCode": "ko", "endonym": "\\ud55c\\uad6d\\uc5b4", "isRtl": false, "ianaCode": "ko", "languageName": "Korean"}, {"languageCode": "fa", "endonym": "\\u0641\\u0627\\u0631\\u0633\\u0649", "isRtl": true, "ianaCode": "fa", "languageName": "Persian"}, {"languageCode": "pl", "endonym": "Polski", "isRtl": false, "ianaCode": "pl", "languageName": "Polish"}, {"languageCode": "pt-br", "endonym": "Portugu\\u00eas brasileiro", "isRtl": false, "ianaCode": "pt-BR", "languageName": "Portuguese, Brazilian"}, {"languageCode": "ro", "endonym": "Rom\\u00e2n\\u0103", "isRtl": false, "ianaCode": "ro", "languageName": "Romanian"}, {"languageCode": "ru", "endonym": "\\u0420\\u0443\\u0441\\u0441\\u043a\\u0438\\u0439", "isRtl": false, "ianaCode": "ru", "languageName": "Russian"}, {"languageCode": "sl", "endonym": "Sloven\\u0161\\u010dina", "isRtl": false, "ianaCode": "sl", "languageName": "Slovenian"}, {"languageCode": "es", "endonym": "Espa\\u00f1ol", "isRtl": false, "ianaCode": "es", "languageName": "Spanish"}, {"languageCode": "tr", "endonym": "T\\u00fcrk\\u00e7e", "isRtl": false, "ianaCode": "tr", "languageName": "Turkish"}, {"languageCode": "vi", "endonym": "Ti\\u1ebfng Vi\\u1ec7t", "isRtl": false, "ianaCode": "vi", "languageName": "Vietnamese"}], "subtitledDownloads": {"en": {"high": "https://download.ted.com/talks/Rives_Mockingbird_2006-480p-en.mp4", "name": "English", "low": "https://download.ted.com/talks/Rives_Mockingbird_2006-low-en.mp4"}, "vi": {"high": "https://download.ted.com/talks/Rives_Mockingbird_2006-480p-vi.mp4", "name": "Vietnamese", "low": "https://download.ted.com/talks/Rives_Mockingbird_2006-low-vi.mp4"}, "ca": {"high": "https://download.ted.com/talks/Rives_Mockingbird_2006-480p-ca.mp4", "name": "Catalan", "low": "https://download.ted.com/talks/Rives_Mockingbird_2006-low-ca.mp4"}, "it": {"high": "https://download.ted.com/talks/Rives_Mockingbird_2006-480p-it.mp4", "name": "Italian", "low": "https://download.ted.com/talks/Rives_Mockingbird_2006-low-it.mp4"}, "ar": {"high": "https://download.ted.com/talks/Rives_Mockingbird_2006-480p-ar.mp4", "name": "Arabic", "low": "https://download.ted.com/talks/Rives_Mockingbird_2006-low-ar.mp4"}, "pt-br": {"high": "https://download.ted.com/talks/Rives_Mockingbird_2006-480p-pt-br.mp4", "name": "Portuguese, Brazilian", "low": "https://download.ted.com/talks/Rives_Mockingbird_2006-low-pt-br.mp4"}, "cs": {"high": "https://download.ted.com/talks/Rives_Mockingbird_2006-480p-cs.mp4", "name": "Czech", "low": "https://download.ted.com/talks/Rives_Mockingbird_2006-low-cs.mp4"}, "id": {"high": "https://download.ted.com/talks/Rives_Mockingbird_2006-480p-id.mp4", "name": "Indonesian", "low": "https://download.ted.com/talks/Rives_Mockingbird_2006-low-id.mp4"}, "es": {"high": "https://download.ted.com/talks/Rives_Mockingbird_2006-480p-es.mp4", "name": "Spanish", "low": "https://download.ted.com/talks/Rives_Mockingbird_2006-low-es.mp4"}, "ru": {"high": "https://download.ted.com/talks/Rives_Mockingbird_2006-480p-ru.mp4", "name": "Russian", "low": "https://download.ted.com/talks/Rives_Mockingbird_2006-low-ru.mp4"}, "nl": {"high": "https://download.ted.com/talks/Rives_Mockingbird_2006-480p-nl.mp4", "name": "Dutch", "low": "https://download.ted.com/talks/Rives_Mockingbird_2006-low-nl.mp4"}, "zh-tw": {"high": "https://download.ted.com/talks/Rives_Mockingbird_2006-480p-zh-tw.mp4", "name": "Chinese, Traditional", "low": "https://download.ted.com/talks/Rives_Mockingbird_2006-low-zh-tw.mp4"}, "tr": {"high": "https://download.ted.com/talks/Rives_Mockingbird_2006-480p-tr.mp4", "name": "Turkish", "low": "https://download.ted.com/talks/Rives_Mockingbird_2006-low-tr.mp4"}, "zh-cn": {"high": "https://download.ted.com/talks/Rives_Mockingbird_2006-480p-zh-cn.mp4", "name": "Chinese, Simplified", "low": "https://download.ted.com/talks/Rives_Mockingbird_2006-low-zh-cn.mp4"}, "ro": {"high": "https://download.ted.com/talks/Rives_Mockingbird_2006-480p-ro.mp4", "name": "Romanian", "low": "https://download.ted.com/talks/Rives_Mockingbird_2006-low-ro.mp4"}, "pl": {"high": "https://download.ted.com/talks/Rives_Mockingbird_2006-480p-pl.mp4", "name": "Polish", "low": "https://download.ted.com/talks/Rives_Mockingbird_2006-low-pl.mp4"}, "fr": {"high": "https://download.ted.com/talks/Rives_Mockingbird_2006-480p-fr.mp4", "name": "French", "low": "https://download.ted.com/talks/Rives_Mockingbird_2006-low-fr.mp4"}, "bg": {"high": "https://download.ted.com/talks/Rives_Mockingbird_2006-480p-bg.mp4", "name": "Bulgarian", "low": "https://download.ted.com/talks/Rives_Mockingbird_2006-low-bg.mp4"}, "hr": {"high": "https://download.ted.com/talks/Rives_Mockingbird_2006-480p-hr.mp4", "name": "Croatian", "low": "https://download.ted.com/talks/Rives_Mockingbird_2006-low-hr.mp4"}, "de": {"high": "https://download.ted.com/talks/Rives_Mockingbird_2006-480p-de.mp4", "name": "German", "low": "https://download.ted.com/talks/Rives_Mockingbird_2006-low-de.mp4"}, "fa": {"high": "https://download.ted.com/talks/Rives_Mockingbird_2006-480p-fa.mp4", "name": "Persian", "low": "https://download.ted.com/talks/Rives_Mockingbird_2006-low-fa.mp4"}, "ja": {"high": "https://download.ted.com/talks/Rives_Mockingbird_2006-480p-ja.mp4", "name": "Japanese", "low": "https://download.ted.com/talks/Rives_Mockingbird_2006-low-ja.mp4"}, "he": {"high": "https://download.ted.com/talks/Rives_Mockingbird_2006-480p-he.mp4", "name": "Hebrew", "low": "https://download.ted.com/talks/Rives_Mockingbird_2006-low-he.mp4"}, "ko": {"high": "https://download.ted.com/talks/Rives_Mockingbird_2006-480p-ko.mp4", "name": "Korean", "low": "https://download.ted.com/talks/Rives_Mockingbird_2006-low-ko.mp4"}, "sl": {"high": "https://download.ted.com/talks/Rives_Mockingbird_2006-480p-sl.mp4", "name": "Slovenian", "low": "https://download.ted.com/talks/Rives_Mockingbird_2006-low-sl.mp4"}}, "nativeDownloads": {"high": "https://download.ted.com/talks/Rives_Mockingbird_2006-480p.mp4?apikey=489b859150fc58263f17110eeb44ed5fba4a3b22", "medium": "https://download.ted.com/talks/Rives_Mockingbird_2006.mp4?apikey=489b859150fc58263f17110eeb44ed5fba4a3b22", "low": "https://download.ted.com/talks/Rives_Mockingbird_2006-light.mp4?apikey=489b859150fc58263f17110eeb44ed5fba4a3b22"}, "id": 108, "audioDownload": "https://download.ted.com/talks/Rives_Mockingbird_2006.mp3?apikey=489b859150fc58263f17110eeb44ed5fba4a3b22"}, "related_talks": [{"viewed_count": 3499168, "hero": "https://pe.tedcdn.com/images/ted/2ee4ff57415326f5ba4de74807f891825e96c26e_1600x1200.jpg", "title": "The  4 a.m. mystery", "id": 148, "speaker": "Rives", "duration": 552, "slug": "rives_on_4_a_m"}, {"viewed_count": 1190839, "hero": "https://pe.tedcdn.com/images/ted/1033e67683314007beac63bdb775116301af6d34_2880x1620.jpg", "title": "A powerful poem about what it feels like to be transgender", "id": 2281, "speaker": "Lee Mokobe", "duration": 261, "slug": "lee_mokobe_a_powerful_poem_about_what_it_feels_like_to_be_transgender"}, {"viewed_count": 4080546, "hero": "https://pe.tedcdn.com/images/ted/c2b614f6687170da113c70c7bb1cc4deb591b2d7_2880x1620.jpg", "title": "Are you human?", "id": 2049, "speaker": "Ze Frank", "duration": 274, "slug": "ze_frank_are_you_human"}, {"viewed_count": 1881437, "hero": "https://pe.tedcdn.com/images/ted/207122_800x600.jpg", "title": "My web playroom", "id": 981, "speaker": "Ze Frank", "duration": 1080, "slug": "ze_frank_s_web_playroom"}, {"viewed_count": 514553, "hero": "https://pe.tedcdn.com/images/ted/61166_800x600.jpg", "title": "The joyful tradition of mountain music", "id": 413, "speaker": "David Holt", "duration": 1517, "slug": "david_holt_plays_mountain_music"}, {"viewed_count": 611739, "hero": "https://pe.tedcdn.com/images/ted/234_480x360.jpg", "title": "A comic sendup of TED2006", "id": 114, "speaker": "Tom Rielly", "duration": 1195, "slug": "tom_rielly_delivers_a_comic_send_up_of_ted2006"}], "recorded_at": "2006-02-02T00:00:00.000+00:00", "slug": "rives_remixes_ted2006", "speaker_name": "Rives", "viewed_count": 644619, "event_badge": null, "event_blurb": "This talk was presented at an official TED conference, and was featured by our editors on the home page.", "recommendations": null, "corrections": null}], "event": "TED2006", "name": "Rives: A mockingbird remix of TED2006"}'
p159
sS'keywords'
p160
(lp161
Ventertainment
p162
aVmemory
p163
aVperformance
p164
aVpoetry
p165
aVspoken word
p166
aVstorytelling
p167
asS'datecrawled'
p168
g154
(S'\x07\xe1\n\x17\x00%#\x08\xe6\xbe'
tRp169
sS'id'
p170
I108
ss.