(dp1
S'talk_transcript'
p2
(lp3
(lp4
VThank you.
p5
aVI'm thrilled to be here.
p6
aVI'm going to talk about a new, old material
p7
aVthat still continues to amaze us,
p8
aVand that might impact the way we think
p9
aVabout material science, high technology \u2014
p10
aVand maybe, along the way,
p11
aValso do some stuff for medicine and for global health and help reforestation.
p12
aVSo that's kind of a bold statement.
p13
aVI'll tell you a little bit more.
p14
aVThis material actually has some traits that make it seem almost too good to be true.
p15
aVIt's sustainable; it's a sustainable material
p16
aVthat is processed all in water and at room temperature \u2014
p17
aVand is biodegradable with a clock,
p18
aVso you can watch it dissolve instantaneously in a glass of water
p19
aVor have it stable for years.
p20
aVIt's edible; it's implantable in the human body
p21
aVwithout causing any immune response.
p22
aVIt actually gets reintegrated in the body.
p23
aVAnd it's technological,
p24
aVso it can do things like microelectronics,
p25
aVand maybe photonics do.
p26
aVAnd the material
p27
aVlooks something like this.
p28
aVIn fact, this material you see is clear and transparent.
p29
aVThe components of this material are just water and protein.
p30
aa(lp31
VSo this material is silk.
p32
aVSo it's kind of different
p33
aVfrom what we're used to thinking about silk.
p34
aVSo the question is, how do you reinvent something
p35
aVthat has been around for five millennia?
p36
aVThe process of discovery, generally, is inspired by nature.
p37
aVAnd so we marvel at silk worms \u2014
p38
aVthe silk worm you see here spinning its fiber.
p39
aVThe silk worm does a remarkable thing:
p40
aVit uses these two ingredients, protein and water,
p41
aVthat are in its gland,
p42
aVto make a material that is exceptionally tough for protection \u2014
p43
aVso comparable to technical fibers
p44
aVlike Kevlar.
p45
aVAnd so in the reverse engineering process
p46
aVthat we know about,
p47
aVand that we're familiar with,
p48
aVfor the textile industry,
p49
aVthe textile industry goes and unwinds the cocoon
p50
aVand then weaves glamorous things.
p51
aVWe want to know how you go from water and protein
p52
aVto this liquid Kevlar, to this natural Kevlar.
p53
aa(lp54
VSo the insight
p55
aVis how do you actually reverse engineer this
p56
aVand go from cocoon to gland
p57
aVand get water and protein that is your starting material.
p58
aVAnd this is an insight
p59
aVthat came, about two decades ago,
p60
aVfrom a person that I'm very fortunate to work with,
p61
aVDavid Kaplan.
p62
aVAnd so we get this starting material.
p63
aVAnd so this starting material is back to the basic building block.
p64
aVAnd then we use this to do a variety of things \u2014
p65
aVlike, for example, this film.
p66
aVAnd we take advantage of something that is very simple.
p67
aVThe recipe to make those films
p68
aVis to take advantage of the fact
p69
aVthat proteins are extremely smart at what they do.
p70
aVThey find their way to self-assemble.
p71
aVSo the recipe is simple: you take the silk solution, you pour it,
p72
aVand you wait for the protein to self-assemble.
p73
aVAnd then you detach the protein and you get this film,
p74
aVas the proteins find each other as the water evaporates.
p75
aa(lp76
VBut I mentioned that the film is also technological.
p77
aVAnd so what does that mean?
p78
aVIt means that you can interface it
p79
aVwith some of the things that are typical of technology,
p80
aVlike microelectronics and nanoscale technology.
p81
aVAnd the image of the DVD here
p82
aVis just to illustrate a point
p83
aVthat silk follows very subtle topographies of the surface,
p84
aVwhich means that it can replicate features on the nanoscale.
p85
aVSo it would be able to replicate the information
p86
aVthat is on the DVD.
p87
aVAnd we can store information that's film with water and protein.
p88
aVSo we tried something out, and we wrote a message in a piece of silk,
p89
aVwhich is right here, and the message is over there.
p90
aVAnd much like in the DVD, you can read it out optically.
p91
aVAnd this requires a stable hand,
p92
aVso this is why I decided to do it onstage in front of a thousand people.
p93
aVSo let me see.
p94
aVSo as you see the film go in transparently through there,
p95
aVand then ...
p96
aV(Applause)
p97
aVAnd the most remarkable feat
p98
aVis that my hand actually stayed still long enough to do that.
p99
aa(lp100
VSo once you have these attributes
p101
aVof this material,
p102
aVthen you can do a lot of things.
p103
aVIt's actually not limited to films.
p104
aVAnd so the material can assume a lot of formats.
p105
aVAnd then you go a little crazy, and so you do various optical components
p106
aVor you do microprism arrays,
p107
aVlike the reflective tape that you have on your running shoes.
p108
aVOr you can do beautiful things
p109
aVthat, if the camera can capture, you can make.
p110
aVYou can add a third dimensionality to the film.
p111
aVAnd if the angle is right,
p112
aVyou can actually see a hologram appear in this film of silk.
p113
aVBut you can do other things.
p114
aVYou can imagine that then maybe you can use a pure protein to guide light,
p115
aVand so we've made optical fibers.
p116
aa(lp117
VBut silk is versatile and it goes beyond optics.
p118
aVAnd you can think of different formats.
p119
aVSo for instance, if you're afraid of going to the doctor and getting stuck with a needle,
p120
aVwe do microneedle arrays.
p121
aVWhat you see there on the screen is a human hair
p122
aVsuperimposed on the needle that's made of silk \u2014
p123
aVjust to give you a sense of size.
p124
aVYou can do bigger things.
p125
aVYou can do gears and nuts and bolts \u2014
p126
aVthat you can buy at Whole Foods.
p127
aVAnd the gears work in water as well.
p128
aVSo you think of alternative mechanical parts.
p129
aVAnd maybe you can use that liquid Kevlar if you need something strong
p130
aVto replace peripheral veins, for example,
p131
aVor maybe an entire bone.
p132
aVAnd so you have here a little example
p133
aVof a small skull \u2014
p134
aVwhat we call mini Yorick.
p135
aV(Laughter)
p136
aVBut you can do things like cups, for example,
p137
aVand so, if you add a little bit of gold, if you add a little bit of semiconductors
p138
aVyou could do sensors that stick on the surfaces of foods.
p139
aVYou can do electronic pieces
p140
aVthat fold and wrap.
p141
aVOr if you're fashion forward, some silk LED tattoos.
p142
aa(lp143
VSo there's versatility, as you see,
p144
aVin the material formats,
p145
aVthat you can do with silk.
p146
aVBut there are still some unique traits.
p147
aVI mean, why would you want to do all these things for real?
p148
aVI mentioned it briefly at the beginning;
p149
aVthe protein is biodegradable and biocompatible.
p150
aVAnd you see here a picture of a tissue section.
p151
aVAnd so what does that mean, that it's biodegradable and biocompatible?
p152
aVYou can implant it in the body without needing to retrieve what is implanted.
p153
aVWhich means that all the devices that you've seen before and all the formats,
p154
aVin principle, can be implanted and disappear.
p155
aVAnd what you see there in that tissue section,
p156
aVin fact, is you see that reflector tape.
p157
aVSo, much like you're seen at night by a car,
p158
aVthen the idea is that you can see, if you illuminate tissue,
p159
aVyou can see deeper parts of tissue
p160
aVbecause there is that reflective tape there that is made out of silk.
p161
aVAnd you see there, it gets reintegrated in tissue.
p162
aVAnd reintegration in the human body
p163
aVis not the only thing,
p164
aVbut reintegration in the environment is important.
p165
aVSo you have a clock, you have protein,
p166
aVand now a silk cup like this
p167
aVcan be thrown away without guilt \u2014
p168
aV(Applause)
p169
aVunlike the polystyrene cups
p170
aVthat unfortunately fill our landfills everyday.
p171
aVIt's edible,
p172
aVso you can do smart packaging around food
p173
aVthat you can cook with the food.
p174
aVIt doesn't taste good,
p175
aVso I'm going to need some help with that.
p176
aa(lp177
VBut probably the most remarkable thing is that it comes full circle.
p178
aVSilk, during its self-assembly process,
p179
aVacts like a cocoon for biological matter.
p180
aVAnd so if you change the recipe,
p181
aVand you add things when you pour \u2014
p182
aVso you add things to your liquid silk solution \u2014
p183
aVwhere these things are enzymes
p184
aVor antibodies or vaccines,
p185
aVthe self-assembly process
p186
aVpreserves the biological function of these dopants.
p187
aVSo it makes the materials environmentally active
p188
aVand interactive.
p189
aVSo that screw that you thought about beforehand
p190
aVcan actually be used
p191
aVto screw a bone together \u2014 a fractured bone together \u2014
p192
aVand deliver drugs at the same,
p193
aVwhile your bone is healing, for example.
p194
aVOr you could put drugs in your wallet and not in your fridge.
p195
aVSo we've made a silk card
p196
aVwith penicillin in it.
p197
aVAnd we stored penicillin at 60 degrees C,
p198
aVso 140 degrees Fahrenheit,
p199
aVfor two months without loss of efficacy of the penicillin.
p200
aVAnd so that could be \u2014-
p201
aV(Applause)
p202
aVthat could be potentially a good alternative
p203
aVto solar powered refrigerated camels. (Laughter)
p204
aVAnd of course, there's no use in storage if you can't use [it].
p205
aa(lp206
VAnd so there is this other unique material trait
p207
aVthat these materials have, that they're programmably degradable.
p208
aVAnd so what you see there is the difference.
p209
aVIn the top, you have a film that has been programmed not to degrade,
p210
aVand in the bottom, a film that has been programmed to degrade in water.
p211
aVAnd what you see is that the film on the bottom
p212
aVreleases what is inside it.
p213
aVSo it allows for the recovery of what we've stored before.
p214
aVAnd so this allows for a controlled delivery of drugs
p215
aVand for reintegration in the environment
p216
aVin all of these formats that you've seen.
p217
aa(lp218
VSo the thread of discovery that we have really is a thread.
p219
aVWe're impassioned with this idea that whatever you want to do,
p220
aVwhether you want to replace a vein or a bone,
p221
aVor maybe be more sustainable in microelectronics,
p222
aVperhaps drink a coffee in a cup
p223
aVand throw it away without guilt,
p224
aVmaybe carry your drugs in your pocket,
p225
aVdeliver them inside your body
p226
aVor deliver them across the desert,
p227
aVthe answer may be in a thread of silk.
p228
aa(lp229
VThank you.
p230
aa(lp231
V(Applause)
p232
aasS'transcript_micsec'
p233
(lp234
I15000
aI75000
aI126000
aI177000
aI245000
aI284000
aI345000
aI432000
aI501000
aI531000
aI554000
aI556000
asS'talk_meta'
p235
(dp236
S'ratings'
p237
(dp238
S'ingenious'
p239
I582
sS'funny'
p240
I8
sS'inspiring'
p241
I216
sS'ok'
p242
I24
sS'fascinating'
p243
I469
sS'total_count'
p244
I2112
sS'persuasive'
p245
I88
sS'longwinded'
p246
I7
sS'informative'
p247
I336
sS'beautiful'
p248
I37
sS'jaw-dropping'
p249
I311
sS'obnoxious'
p250
I7
sS'confusing'
p251
I15
sS'courageous'
p252
I3
sS'unconvincing'
p253
I9
ssS'author'
p254
VFiorenzo_Omenetto;
p255
sS'url'
p256
S'https://www.ted.com/talks/fiorenzo_omenetto_silk_the_ancient_material_of_the_future'
p257
sS'vidlen'
p258
I580
sS'totalviews'
p259
I749364
sS'title'
p260
VSilk, the ancient material of the future
p261
sS'downloadlink'
p262
Vhttps://download.ted.com/talks/FioOmenetto_2011.mp4?apikey=489b859150fc58263f17110eeb44ed5fba4a3b22
p263
sS'datepublished'
p264
cdatetime
datetime
p265
(S'\x07\xdb\x05\n\n-\x00\x00\x00\x00'
tRp266
sS'datefilmed'
p267
g265
(S'\x07\xdb\x05\n\n-\x00\x00\x00\x00'
tRp268
sS'alldata_JSON'
p269
S'{"viewed_count": 749364, "speakers": [{"description": "Biomedical engineer", "firstname": "Fiorenzo", "title": "", "lastname": "Omenetto", "middleinitial": "", "whylisten": "<p>Fiorenzo Omenetto is a Professor of Biomedical Engineering and  leads   the laboratory for Ultrafast Nonlinear Optics and Biophotonics at  Tufts   University and also holds an appointment in the Department of   Physics.  Formerly a J. Robert Oppenheimer Fellow at Los Alamos National    Laboratory before joining Tufts, his research is focused on    interdisciplinary themes that span nonlinear optics, nanostructured    materials (such as photonic crystals and photonic crystal fibers),    optofluidics and biopolymer based photonics. He has published over 100    papers and peer-review contributions across these various disciplines.</p><p>Since moving to Tufts at the end of 2005, he has proposed and pioneered    (with David Kaplan) the use of silk as a material platform for    photonics, optoelectronics and high-technology applications. This new    research platform has recently been featured in MIT&#39;s <em>Technology    Review</em> as one of the 2010 &quot;top ten technologies likely    to change the world.&quot; </p>", "slug": "fiorenzo_omenetto", "whotheyare": "Fiorenzo G. Omenetto\'s research spans nonlinear optics, nanostructured materials (such as photonic crystals and photonic crystal fibers), biomaterials and biopolymer-based photonics. Most recently, he\'s working on high-tech applications for silk.", "whatotherssay": "", "id": 892, "photo_url": "https://pe.tedcdn.com/images/ted/27e22db8d18235a04acc0e626893ab434d0d8c73_254x191.jpg"}], "current_talk": 1142, "description": "Fiorenzo Omenetto shares 20+ astonishing new uses for silk, one of nature\'s most elegant materials -- in transmitting light, improving sustainability, adding strength and making medical leaps and bounds. On stage, he shows a few intriguing items made of the versatile stuff.", "language": "en", "url": "https://www.ted.com/talks/fiorenzo_omenetto_silk_the_ancient_material_of_the_future", "media": {"internal": {"podcast-high-en": {"uri": "https://download.ted.com/talks/FioOmenetto_2011-480p-en.mp4?apikey=489b859150fc58263f17110eeb44ed5fba4a3b22", "mime_type": "video/mp4", "filesize_bytes": 67636594}, "podcast-low-en": {"uri": "https://download.ted.com/talks/FioOmenetto_2011-low-en.mp4?apikey=489b859150fc58263f17110eeb44ed5fba4a3b22", "mime_type": "video/mp4", "filesize_bytes": 13388248}, "podcast-high": {"uri": "https://download.ted.com/talks/FioOmenetto_2011-480p.mp4?apikey=489b859150fc58263f17110eeb44ed5fba4a3b22", "mime_type": "video/mp4", "filesize_bytes": 67321059}, "180k": {"uri": "https://download.ted.com/talks/FioOmenetto_2011-180k.mp4?apikey=489b859150fc58263f17110eeb44ed5fba4a3b22", "mime_type": "video/mp4", "filesize_bytes": 13137208}, "64k": {"uri": "https://download.ted.com/talks/FioOmenetto_2011-64k.mp4?apikey=489b859150fc58263f17110eeb44ed5fba4a3b22", "mime_type": "video/mp4", "filesize_bytes": 4745757}, "1500k": {"uri": "https://download.ted.com/talks/FioOmenetto_2011-1500k.mp4?apikey=489b859150fc58263f17110eeb44ed5fba4a3b22", "mime_type": "video/mp4", "filesize_bytes": 104622441}, "450k": {"uri": "https://download.ted.com/talks/FioOmenetto_2011-450k.mp4?apikey=489b859150fc58263f17110eeb44ed5fba4a3b22", "mime_type": "video/mp4", "filesize_bytes": 32848417}, "podcast-regular": {"uri": "https://download.ted.com/talks/FioOmenetto_2011.mp4?apikey=489b859150fc58263f17110eeb44ed5fba4a3b22", "mime_type": "video/mp4", "filesize_bytes": 32963693}, "950k": {"uri": "https://download.ted.com/talks/FioOmenetto_2011-950k.mp4?apikey=489b859150fc58263f17110eeb44ed5fba4a3b22", "mime_type": "video/mp4", "filesize_bytes": 67310988}, "audio-podcast": {"uri": "https://download.ted.com/talks/FioOmenetto_2011.mp3?apikey=489b859150fc58263f17110eeb44ed5fba4a3b22", "mime_type": "audio/mp3", "filesize_bytes": 5939872}, "podcast-light": {"uri": "https://download.ted.com/talks/FioOmenetto_2011-light.mp4?apikey=489b859150fc58263f17110eeb44ed5fba4a3b22", "mime_type": "video/mp4", "filesize_bytes": 4878928}, "320k": {"uri": "https://download.ted.com/talks/FioOmenetto_2011-320k.mp4?apikey=489b859150fc58263f17110eeb44ed5fba4a3b22", "mime_type": "video/mp4", "filesize_bytes": 23284018}, "600k": {"uri": "https://download.ted.com/talks/FioOmenetto_2011-600k.mp4?apikey=489b859150fc58263f17110eeb44ed5fba4a3b22", "mime_type": "video/mp4", "filesize_bytes": 44039550}}}, "comments": {"count": 94, "id": 3789, "talk_id": 1142}, "slug": "fiorenzo_omenetto_silk_the_ancient_material_of_the_future", "threadId": 3789, "talks": [{"event": "TED2011", "player_talks": [{"event": "TED2011", "slug": "fiorenzo_omenetto_silk_the_ancient_material_of_the_future", "filmed": 1299110400, "targeting": {"event": "TED2011", "tag": "biology,biomimicry,design,green,invention,life,medicine,science,technology", "id": 1142, "talk": "fiorenzo_omenetto_silk_the_ancient_material_of_the_future", "year": "2011"}, "adDuration": "4.00", "external": null, "title": "Silk, the ancient material of the future", "postAdDuration": "0.83", "published": 1305038700, "thumb": "https://pi.tedcdn.com/r/pe.tedcdn.com/images/ted/1018bad33421b91c77371e5516b63b2bdf4e735c_800x600.jpg?quality=89&w=600", "name": "Fiorenzo Omenetto: Silk, the ancient material of the future", "languages": [{"languageCode": "ar", "endonym": "\\u0627\\u0644\\u0639\\u0631\\u0628\\u064a\\u0629", "isRtl": true, "ianaCode": "ar", "languageName": "Arabic"}, {"languageCode": "bg", "endonym": "\\u0431\\u044a\\u043b\\u0433\\u0430\\u0440\\u0441\\u043a\\u0438", "isRtl": false, "ianaCode": "bg", "languageName": "Bulgarian"}, {"languageCode": "zh-cn", "endonym": "\\u4e2d\\u6587 (\\u7b80\\u4f53)", "isRtl": false, "ianaCode": "zh-Hans", "languageName": "Chinese, Simplified"}, {"languageCode": "zh-tw", "endonym": "\\u4e2d\\u6587 (\\u7e41\\u9ad4)", "isRtl": false, "ianaCode": "zh-Hant", "languageName": "Chinese, Traditional"}, {"languageCode": "hr", "endonym": "Hrvatski", "isRtl": false, "ianaCode": "hr", "languageName": "Croatian"}, {"languageCode": "cs", "endonym": "\\u010ce\\u0161tina", "isRtl": false, "ianaCode": "cs", "languageName": "Czech"}, {"languageCode": "nl", "endonym": "Nederlands", "isRtl": false, "ianaCode": "nl", "languageName": "Dutch"}, {"languageCode": "en", "endonym": "English", "isRtl": false, "ianaCode": "en", "languageName": "English"}, {"languageCode": "eo", "endonym": "Esperanto", "isRtl": false, "ianaCode": "eo", "languageName": "Esperanto"}, {"languageCode": "fr", "endonym": "Fran\\u00e7ais", "isRtl": false, "ianaCode": "fr", "languageName": "French"}, {"languageCode": "de", "endonym": "Deutsch", "isRtl": false, "ianaCode": "de", "languageName": "German"}, {"languageCode": "el", "endonym": "\\u0395\\u03bb\\u03bb\\u03b7\\u03bd\\u03b9\\u03ba\\u03ac", "isRtl": false, "ianaCode": "el", "languageName": "Greek"}, {"languageCode": "he", "endonym": "\\u05e2\\u05d1\\u05e8\\u05d9\\u05ea", "isRtl": true, "ianaCode": "he", "languageName": "Hebrew"}, {"languageCode": "hu", "endonym": "Magyar", "isRtl": false, "ianaCode": "hu", "languageName": "Hungarian"}, {"languageCode": "id", "endonym": "Bahasa Indonesia", "isRtl": false, "ianaCode": "id", "languageName": "Indonesian"}, {"languageCode": "it", "endonym": "Italiano", "isRtl": false, "ianaCode": "it", "languageName": "Italian"}, {"languageCode": "ja", "endonym": "\\u65e5\\u672c\\u8a9e", "isRtl": false, "ianaCode": "ja", "languageName": "Japanese"}, {"languageCode": "ko", "endonym": "\\ud55c\\uad6d\\uc5b4", "isRtl": false, "ianaCode": "ko", "languageName": "Korean"}, {"languageCode": "nb", "endonym": "Norsk bokm\\u00e5l", "isRtl": false, "ianaCode": "nb", "languageName": "Norwegian Bokmal"}, {"languageCode": "fa", "endonym": "\\u0641\\u0627\\u0631\\u0633\\u0649", "isRtl": true, "ianaCode": "fa", "languageName": "Persian"}, {"languageCode": "pl", "endonym": "Polski", "isRtl": false, "ianaCode": "pl", "languageName": "Polish"}, {"languageCode": "pt", "endonym": "Portugu\\u00eas de Portugal", "isRtl": false, "ianaCode": "pt", "languageName": "Portuguese"}, {"languageCode": "pt-br", "endonym": "Portugu\\u00eas brasileiro", "isRtl": false, "ianaCode": "pt-BR", "languageName": "Portuguese, Brazilian"}, {"languageCode": "ro", "endonym": "Rom\\u00e2n\\u0103", "isRtl": false, "ianaCode": "ro", "languageName": "Romanian"}, {"languageCode": "ru", "endonym": "\\u0420\\u0443\\u0441\\u0441\\u043a\\u0438\\u0439", "isRtl": false, "ianaCode": "ru", "languageName": "Russian"}, {"languageCode": "sr", "endonym": "\\u0421\\u0440\\u043f\\u0441\\u043a\\u0438, Srpski", "isRtl": false, "ianaCode": "sr", "languageName": "Serbian"}, {"languageCode": "sk", "endonym": "Sloven\\u010dina", "isRtl": false, "ianaCode": "sk", "languageName": "Slovak"}, {"languageCode": "sl", "endonym": "Sloven\\u0161\\u010dina", "isRtl": false, "ianaCode": "sl", "languageName": "Slovenian"}, {"languageCode": "es", "endonym": "Espa\\u00f1ol", "isRtl": false, "ianaCode": "es", "languageName": "Spanish"}, {"languageCode": "th", "endonym": "\\u0e20\\u0e32\\u0e29\\u0e32\\u0e44\\u0e17\\u0e22", "isRtl": false, "ianaCode": "th", "languageName": "Thai"}, {"languageCode": "tr", "endonym": "T\\u00fcrk\\u00e7e", "isRtl": false, "ianaCode": "tr", "languageName": "Turkish"}, {"languageCode": "vi", "endonym": "Ti\\u1ebfng Vi\\u1ec7t", "isRtl": false, "ianaCode": "vi", "languageName": "Vietnamese"}], "nativeLanguage": "en", "tags": ["biology", "biomimicry", "design", "green", "invention", "life", "medicine", "science", "technology"], "speaker": "Fiorenzo Omenetto", "isSubtitleRequired": false, "introDuration": 15.33, "duration": 580, "id": 1142, "resources": {"h264": [{"bitrate": 320, "file": "https://download.ted.com/talks/FioOmenetto_2011-320k.mp4?dnt"}], "hls": {"maiTargeting": {"event": "TED2011", "tag": "biology,biomimicry,design,green,invention,life,medicine,science,technology", "id": 1142, "talk": "fiorenzo_omenetto_silk_the_ancient_material_of_the_future", "year": "2011"}, "metadata": "https://hls.ted.com/talks/1142.json", "stream": "https://hls.ted.com/talks/1142.m3u8", "adUrl": "https://pubads.g.doubleclick.net/gampad/ads?ciu_szs=300x250%2C512x288%2C120x60%2C320x50%2C6x7%2C6x8&correlator=%5Bcorrelator%5D&cust_params=event%3DTED2011%26id%3D1142%26tag%3Dbiology%2Cbiomimicry%2Cdesign%2Cgreen%2Cinvention%2Clife%2Cmedicine%2Cscience%2Ctechnology%26talk%3Dfiorenzo_omenetto_silk_the_ancient_material_of_the_future%26year%3D2011&env=vp&gdfp_req=1&impl=s&iu=%2F5641%2Fmobile%2Fios%2Fweb&output=xml_vast2&sz=640x360&unviewed_position_start=1&url=%5Breferrer%5D"}}, "canonical": "https://www.ted.com/talks/fiorenzo_omenetto_silk_the_ancient_material_of_the_future"}], "hero_load": "https://pi.tedcdn.com/r/pe.tedcdn.com/images/ted/1018bad33421b91c77371e5516b63b2bdf4e735c_800x600.jpg?q=50&w=15", "duration": 580, "id": 1142, "ratings": [{"count": 311, "id": 23, "name": "Jaw-dropping"}, {"count": 582, "id": 9, "name": "Ingenious"}, {"count": 469, "id": 22, "name": "Fascinating"}, {"count": 8, "id": 7, "name": "Funny"}, {"count": 336, "id": 8, "name": "Informative"}, {"count": 216, "id": 10, "name": "Inspiring"}, {"count": 88, "id": 24, "name": "Persuasive"}, {"count": 24, "id": 25, "name": "OK"}, {"count": 37, "id": 1, "name": "Beautiful"}, {"count": 3, "id": 3, "name": "Courageous"}, {"count": 9, "id": 21, "name": "Unconvincing"}, {"count": 7, "id": 11, "name": "Longwinded"}, {"count": 15, "id": 2, "name": "Confusing"}, {"count": 7, "id": 26, "name": "Obnoxious"}], "speakers": [{"description": "Biomedical engineer", "firstname": "Fiorenzo", "title": "", "lastname": "Omenetto", "middleinitial": "", "whylisten": "<p>Fiorenzo Omenetto is a Professor of Biomedical Engineering and  leads   the laboratory for Ultrafast Nonlinear Optics and Biophotonics at  Tufts   University and also holds an appointment in the Department of   Physics.  Formerly a J. Robert Oppenheimer Fellow at Los Alamos National    Laboratory before joining Tufts, his research is focused on    interdisciplinary themes that span nonlinear optics, nanostructured    materials (such as photonic crystals and photonic crystal fibers),    optofluidics and biopolymer based photonics. He has published over 100    papers and peer-review contributions across these various disciplines.</p><p>Since moving to Tufts at the end of 2005, he has proposed and pioneered    (with David Kaplan) the use of silk as a material platform for    photonics, optoelectronics and high-technology applications. This new    research platform has recently been featured in MIT&#39;s <em>Technology    Review</em> as one of the 2010 &quot;top ten technologies likely    to change the world.&quot; </p>", "slug": "fiorenzo_omenetto", "whotheyare": "Fiorenzo G. Omenetto\'s research spans nonlinear optics, nanostructured materials (such as photonic crystals and photonic crystal fibers), biomaterials and biopolymer-based photonics. Most recently, he\'s working on high-tech applications for silk.", "whatotherssay": "", "id": 892, "photo_url": "https://pe.tedcdn.com/images/ted/27e22db8d18235a04acc0e626893ab434d0d8c73_254x191.jpg"}], "title": "Silk, the ancient material of the future", "take_action": null, "comments": 3789, "more_resources": null, "hero": "https://pe.tedcdn.com/images/ted/1018bad33421b91c77371e5516b63b2bdf4e735c_800x600.jpg", "description": "Fiorenzo Omenetto shares 20+ astonishing new uses for silk, one of nature\'s most elegant materials -- in transmitting light, improving sustainability, adding strength and making medical leaps and bounds. On stage, he shows a few intriguing items made of the versatile stuff.", "tags": ["biology", "biomimicry", "design", "green", "invention", "life", "medicine", "science", "technology"], "downloads": {"languages": [{"languageCode": "ar", "endonym": "\\u0627\\u0644\\u0639\\u0631\\u0628\\u064a\\u0629", "isRtl": true, "ianaCode": "ar", "languageName": "Arabic"}, {"languageCode": "bg", "endonym": "\\u0431\\u044a\\u043b\\u0433\\u0430\\u0440\\u0441\\u043a\\u0438", "isRtl": false, "ianaCode": "bg", "languageName": "Bulgarian"}, {"languageCode": "zh-cn", "endonym": "\\u4e2d\\u6587 (\\u7b80\\u4f53)", "isRtl": false, "ianaCode": "zh-Hans", "languageName": "Chinese, Simplified"}, {"languageCode": "zh-tw", "endonym": "\\u4e2d\\u6587 (\\u7e41\\u9ad4)", "isRtl": false, "ianaCode": "zh-Hant", "languageName": "Chinese, Traditional"}, {"languageCode": "hr", "endonym": "Hrvatski", "isRtl": false, "ianaCode": "hr", "languageName": "Croatian"}, {"languageCode": "cs", "endonym": "\\u010ce\\u0161tina", "isRtl": false, "ianaCode": "cs", "languageName": "Czech"}, {"languageCode": "nl", "endonym": "Nederlands", "isRtl": false, "ianaCode": "nl", "languageName": "Dutch"}, {"languageCode": "en", "endonym": "English", "isRtl": false, "ianaCode": "en", "languageName": "English"}, {"languageCode": "eo", "endonym": "Esperanto", "isRtl": false, "ianaCode": "eo", "languageName": "Esperanto"}, {"languageCode": "fr", "endonym": "Fran\\u00e7ais", "isRtl": false, "ianaCode": "fr", "languageName": "French"}, {"languageCode": "de", "endonym": "Deutsch", "isRtl": false, "ianaCode": "de", "languageName": "German"}, {"languageCode": "el", "endonym": "\\u0395\\u03bb\\u03bb\\u03b7\\u03bd\\u03b9\\u03ba\\u03ac", "isRtl": false, "ianaCode": "el", "languageName": "Greek"}, {"languageCode": "he", "endonym": "\\u05e2\\u05d1\\u05e8\\u05d9\\u05ea", "isRtl": true, "ianaCode": "he", "languageName": "Hebrew"}, {"languageCode": "hu", "endonym": "Magyar", "isRtl": false, "ianaCode": "hu", "languageName": "Hungarian"}, {"languageCode": "id", "endonym": "Bahasa Indonesia", "isRtl": false, "ianaCode": "id", "languageName": "Indonesian"}, {"languageCode": "it", "endonym": "Italiano", "isRtl": false, "ianaCode": "it", "languageName": "Italian"}, {"languageCode": "ja", "endonym": "\\u65e5\\u672c\\u8a9e", "isRtl": false, "ianaCode": "ja", "languageName": "Japanese"}, {"languageCode": "ko", "endonym": "\\ud55c\\uad6d\\uc5b4", "isRtl": false, "ianaCode": "ko", "languageName": "Korean"}, {"languageCode": "nb", "endonym": "Norsk bokm\\u00e5l", "isRtl": false, "ianaCode": "nb", "languageName": "Norwegian Bokmal"}, {"languageCode": "fa", "endonym": "\\u0641\\u0627\\u0631\\u0633\\u0649", "isRtl": true, "ianaCode": "fa", "languageName": "Persian"}, {"languageCode": "pl", "endonym": "Polski", "isRtl": false, "ianaCode": "pl", "languageName": "Polish"}, {"languageCode": "pt", "endonym": "Portugu\\u00eas de Portugal", "isRtl": false, "ianaCode": "pt", "languageName": "Portuguese"}, {"languageCode": "pt-br", "endonym": "Portugu\\u00eas brasileiro", "isRtl": false, "ianaCode": "pt-BR", "languageName": "Portuguese, Brazilian"}, {"languageCode": "ro", "endonym": "Rom\\u00e2n\\u0103", "isRtl": false, "ianaCode": "ro", "languageName": "Romanian"}, {"languageCode": "ru", "endonym": "\\u0420\\u0443\\u0441\\u0441\\u043a\\u0438\\u0439", "isRtl": false, "ianaCode": "ru", "languageName": "Russian"}, {"languageCode": "sr", "endonym": "\\u0421\\u0440\\u043f\\u0441\\u043a\\u0438, Srpski", "isRtl": false, "ianaCode": "sr", "languageName": "Serbian"}, {"languageCode": "sk", "endonym": "Sloven\\u010dina", "isRtl": false, "ianaCode": "sk", "languageName": "Slovak"}, {"languageCode": "sl", "endonym": "Sloven\\u0161\\u010dina", "isRtl": false, "ianaCode": "sl", "languageName": "Slovenian"}, {"languageCode": "es", "endonym": "Espa\\u00f1ol", "isRtl": false, "ianaCode": "es", "languageName": "Spanish"}, {"languageCode": "th", "endonym": "\\u0e20\\u0e32\\u0e29\\u0e32\\u0e44\\u0e17\\u0e22", "isRtl": false, "ianaCode": "th", "languageName": "Thai"}, {"languageCode": "tr", "endonym": "T\\u00fcrk\\u00e7e", "isRtl": false, "ianaCode": "tr", "languageName": "Turkish"}, {"languageCode": "vi", "endonym": "Ti\\u1ebfng Vi\\u1ec7t", "isRtl": false, "ianaCode": "vi", "languageName": "Vietnamese"}], "subtitledDownloads": {"el": {"high": "https://download.ted.com/talks/FioOmenetto_2011-480p-el.mp4", "name": "Greek", "low": "https://download.ted.com/talks/FioOmenetto_2011-low-el.mp4"}, "eo": {"high": "https://download.ted.com/talks/FioOmenetto_2011-480p-eo.mp4", "name": "Esperanto", "low": "https://download.ted.com/talks/FioOmenetto_2011-low-eo.mp4"}, "en": {"high": "https://download.ted.com/talks/FioOmenetto_2011-480p-en.mp4", "name": "English", "low": "https://download.ted.com/talks/FioOmenetto_2011-low-en.mp4"}, "vi": {"high": "https://download.ted.com/talks/FioOmenetto_2011-480p-vi.mp4", "name": "Vietnamese", "low": "https://download.ted.com/talks/FioOmenetto_2011-low-vi.mp4"}, "it": {"high": "https://download.ted.com/talks/FioOmenetto_2011-480p-it.mp4", "name": "Italian", "low": "https://download.ted.com/talks/FioOmenetto_2011-low-it.mp4"}, "ar": {"high": "https://download.ted.com/talks/FioOmenetto_2011-480p-ar.mp4", "name": "Arabic", "low": "https://download.ted.com/talks/FioOmenetto_2011-low-ar.mp4"}, "pt-br": {"high": "https://download.ted.com/talks/FioOmenetto_2011-480p-pt-br.mp4", "name": "Portuguese, Brazilian", "low": "https://download.ted.com/talks/FioOmenetto_2011-low-pt-br.mp4"}, "cs": {"high": "https://download.ted.com/talks/FioOmenetto_2011-480p-cs.mp4", "name": "Czech", "low": "https://download.ted.com/talks/FioOmenetto_2011-low-cs.mp4"}, "id": {"high": "https://download.ted.com/talks/FioOmenetto_2011-480p-id.mp4", "name": "Indonesian", "low": "https://download.ted.com/talks/FioOmenetto_2011-low-id.mp4"}, "es": {"high": "https://download.ted.com/talks/FioOmenetto_2011-480p-es.mp4", "name": "Spanish", "low": "https://download.ted.com/talks/FioOmenetto_2011-low-es.mp4"}, "ru": {"high": "https://download.ted.com/talks/FioOmenetto_2011-480p-ru.mp4", "name": "Russian", "low": "https://download.ted.com/talks/FioOmenetto_2011-low-ru.mp4"}, "nl": {"high": "https://download.ted.com/talks/FioOmenetto_2011-480p-nl.mp4", "name": "Dutch", "low": "https://download.ted.com/talks/FioOmenetto_2011-low-nl.mp4"}, "pt": {"high": "https://download.ted.com/talks/FioOmenetto_2011-480p-pt.mp4", "name": "Portuguese", "low": "https://download.ted.com/talks/FioOmenetto_2011-low-pt.mp4"}, "zh-tw": {"high": "https://download.ted.com/talks/FioOmenetto_2011-480p-zh-tw.mp4", "name": "Chinese, Traditional", "low": "https://download.ted.com/talks/FioOmenetto_2011-low-zh-tw.mp4"}, "nb": {"high": "https://download.ted.com/talks/FioOmenetto_2011-480p-nb.mp4", "name": "Norwegian Bokmal", "low": "https://download.ted.com/talks/FioOmenetto_2011-low-nb.mp4"}, "tr": {"high": "https://download.ted.com/talks/FioOmenetto_2011-480p-tr.mp4", "name": "Turkish", "low": "https://download.ted.com/talks/FioOmenetto_2011-low-tr.mp4"}, "zh-cn": {"high": "https://download.ted.com/talks/FioOmenetto_2011-480p-zh-cn.mp4", "name": "Chinese, Simplified", "low": "https://download.ted.com/talks/FioOmenetto_2011-low-zh-cn.mp4"}, "th": {"high": "https://download.ted.com/talks/FioOmenetto_2011-480p-th.mp4", "name": "Thai", "low": "https://download.ted.com/talks/FioOmenetto_2011-low-th.mp4"}, "ro": {"high": "https://download.ted.com/talks/FioOmenetto_2011-480p-ro.mp4", "name": "Romanian", "low": "https://download.ted.com/talks/FioOmenetto_2011-low-ro.mp4"}, "pl": {"high": "https://download.ted.com/talks/FioOmenetto_2011-480p-pl.mp4", "name": "Polish", "low": "https://download.ted.com/talks/FioOmenetto_2011-low-pl.mp4"}, "fr": {"high": "https://download.ted.com/talks/FioOmenetto_2011-480p-fr.mp4", "name": "French", "low": "https://download.ted.com/talks/FioOmenetto_2011-low-fr.mp4"}, "bg": {"high": "https://download.ted.com/talks/FioOmenetto_2011-480p-bg.mp4", "name": "Bulgarian", "low": "https://download.ted.com/talks/FioOmenetto_2011-low-bg.mp4"}, "hr": {"high": "https://download.ted.com/talks/FioOmenetto_2011-480p-hr.mp4", "name": "Croatian", "low": "https://download.ted.com/talks/FioOmenetto_2011-low-hr.mp4"}, "de": {"high": "https://download.ted.com/talks/FioOmenetto_2011-480p-de.mp4", "name": "German", "low": "https://download.ted.com/talks/FioOmenetto_2011-low-de.mp4"}, "hu": {"high": "https://download.ted.com/talks/FioOmenetto_2011-480p-hu.mp4", "name": "Hungarian", "low": "https://download.ted.com/talks/FioOmenetto_2011-low-hu.mp4"}, "fa": {"high": "https://download.ted.com/talks/FioOmenetto_2011-480p-fa.mp4", "name": "Persian", "low": "https://download.ted.com/talks/FioOmenetto_2011-low-fa.mp4"}, "ja": {"high": "https://download.ted.com/talks/FioOmenetto_2011-480p-ja.mp4", "name": "Japanese", "low": "https://download.ted.com/talks/FioOmenetto_2011-low-ja.mp4"}, "he": {"high": "https://download.ted.com/talks/FioOmenetto_2011-480p-he.mp4", "name": "Hebrew", "low": "https://download.ted.com/talks/FioOmenetto_2011-low-he.mp4"}, "sr": {"high": "https://download.ted.com/talks/FioOmenetto_2011-480p-sr.mp4", "name": "Serbian", "low": "https://download.ted.com/talks/FioOmenetto_2011-low-sr.mp4"}, "ko": {"high": "https://download.ted.com/talks/FioOmenetto_2011-480p-ko.mp4", "name": "Korean", "low": "https://download.ted.com/talks/FioOmenetto_2011-low-ko.mp4"}, "sk": {"high": "https://download.ted.com/talks/FioOmenetto_2011-480p-sk.mp4", "name": "Slovak", "low": "https://download.ted.com/talks/FioOmenetto_2011-low-sk.mp4"}, "sl": {"high": "https://download.ted.com/talks/FioOmenetto_2011-480p-sl.mp4", "name": "Slovenian", "low": "https://download.ted.com/talks/FioOmenetto_2011-low-sl.mp4"}}, "nativeDownloads": {"high": "https://download.ted.com/talks/FioOmenetto_2011-480p.mp4?apikey=489b859150fc58263f17110eeb44ed5fba4a3b22", "medium": "https://download.ted.com/talks/FioOmenetto_2011.mp4?apikey=489b859150fc58263f17110eeb44ed5fba4a3b22", "low": "https://download.ted.com/talks/FioOmenetto_2011-light.mp4?apikey=489b859150fc58263f17110eeb44ed5fba4a3b22"}, "id": 1142, "audioDownload": "https://download.ted.com/talks/FioOmenetto_2011.mp3?apikey=489b859150fc58263f17110eeb44ed5fba4a3b22"}, "related_talks": [{"viewed_count": 1128401, "hero": "https://pe.tedcdn.com/images/ted/e8430d354d96172c304305fc026b2fdf3d36b6b3_2880x1620.jpg", "title": "Biomimicry in action", "id": 614, "speaker": "Janine Benyus", "duration": 1062, "slug": "janine_benyus_biomimicry_in_action"}, {"viewed_count": 1101842, "hero": "https://pe.tedcdn.com/images/ted/203381_800x600.jpg", "title": "Are mushrooms the new plastic?", "id": 971, "speaker": "Eben Bayer", "duration": 545, "slug": "eben_bayer_are_mushrooms_the_new_plastic"}, {"viewed_count": 768749, "hero": "https://pe.tedcdn.com/images/ted/4c4b79f8aff78abbae3b99b6442064e6ad3c6a72_800x600.jpg", "title": "The magnificence of spider silk", "id": 1296, "speaker": "Cheryl Hayashi", "duration": 868, "slug": "cheryl_hayashi_the_magnificence_of_spider_silk"}, {"viewed_count": 1618369, "hero": "https://pe.tedcdn.com/images/ted/a4817b9887ab589f58ea7258b3e4cecbafa126c2_2880x1620.jpg", "title": "Design at the intersection of technology and biology", "id": 2344, "speaker": "Neri Oxman", "duration": 1056, "slug": "neri_oxman_design_at_the_intersection_of_technology_and_biology"}, {"viewed_count": 1227529, "hero": "https://pe.tedcdn.com/images/ted/88f8c62ce78c9a32449759c3790e9752651b0d0f_2880x1620.jpg", "title": "How we\'re harnessing nature\'s hidden superpowers", "id": 2544, "speaker": "Oded Shoseyov", "duration": 801, "slug": "oded_shoseyov_how_we_re_harnessing_nature_s_hidden_superpowers"}, {"viewed_count": 1929447, "hero": "https://pe.tedcdn.com/images/ted/12_480x360.jpg", "title": "Biomimicry\'s surprising lessons from nature\'s engineers", "id": 18, "speaker": "Janine Benyus", "duration": 1399, "slug": "janine_benyus_shares_nature_s_designs"}], "recorded_at": "2011-03-03T00:00:00.000+00:00", "slug": "fiorenzo_omenetto_silk_the_ancient_material_of_the_future", "speaker_name": "Fiorenzo Omenetto", "viewed_count": 749364, "event_badge": null, "event_blurb": "This talk was presented at an official TED conference, and was featured by our editors on the home page.", "recommendations": null, "corrections": null}], "event": "TED2011", "name": "Fiorenzo Omenetto: Silk, the ancient material of the future"}'
p270
sS'keywords'
p271
(lp272
Vbiology
p273
aVbiomimicry
p274
aVdesign
p275
aVgreen
p276
aVinvention
p277
aVlife
p278
aVmedicine
p279
aVscience
p280
aVtechnology
p281
asS'datecrawled'
p282
g265
(S'\x07\xe1\n\x17\x007;\x04sR'
tRp283
sS'id'
p284
I1142
ss.