(dp1
S'talk_transcript'
p2
(lp3
(lp4
VTo understand the world that live in, we tell stories.
p5
aVAnd while remixing and sharing have come to define
p6
aVthe web as we know it,
p7
aVall of us can now be part of that story through simple tools
p8
aVthat allow us to make things online.
p9
aVBut video has been left out. It arrived on the web
p10
aVin a small box, and there it has remained,
p11
aVcompletely disconnected from the data and the content
p12
aVall around it.
p13
aVIn fact, in over a decade on the web, the only thing
p14
aVthat has changed about video is the size of the box
p15
aVand the quality of the picture.
p16
aa(lp17
VPopcorn changes all of that.
p18
aVIt's an online tool that allows anyone to combine video
p19
aVwith content pulled live directly from the web.
p20
aVVideos created with Popcorn behave like the web itself:
p21
aVdynamic, full of links, and completely remixable,
p22
aVand finally allowed to break free from the frame.
p23
aa(lp24
VI want to give you a demo of a prototype
p25
aVthat we're working on that we'll launch later this fall.
p26
aVIt will be completely free, and it will work in any browser.
p27
aVSo, every Popcorn production begins with the video,
p28
aVand so I've made a short, 20-second clip
p29
aVusing a newscaster template that we use in workshops.
p30
aVSo let's watch it. We'll go back, and I'll show you how we made it.
p31
aa(lp32
VHi, and welcome to my newscast.
p33
aVI've added my location with a Google Map,
p34
aVand it's live, so try moving it around.
p35
aVYou can add pop-ups with live links and custom icons,
p36
aVor pull in content from any web service, like Flickr,
p37
aVor add articles and blog posts with links out to the full content.
p38
aa(lp39
VSo let's go back, and I'll show you what you saw. There was a lot there.
p40
aVSo this is the timeline, and if you've ever edited video,
p41
aVyou're familiar with this, but instead of clips in the timeline,
p42
aVwhat you're looking at is web events pulled into the video.
p43
aVNow in this Popcorn production we've got
p44
aVthe title card, we've got a Google Map that shows up
p45
aVpicture-in-picture, then Popcorn lets it push
p46
aVoutside the frame and take over the whole screen.
p47
aVThere are two pop-ups bringing you some other information,
p48
aVand a final article with a link out to the original article.
p49
aa(lp50
VLet's go to this Google Map, and I'll show you how you can edit it.
p51
aVAll you do, go into the timeline, double-click the item,
p52
aVand I've set it to Toronto, because that's where I'm from.
p53
aVLet's set it to something else.
p54
aVPopcorn immediately goes out onto the web,
p55
aVtalks to Google, grabs the map, and puts it in the display.
p56
aVAnd it's exactly the same
p57
aVfor the people who watch your production.
p58
aVAnd it's live. It's not an image. So you click on it,
p59
aVyou zoom in, right down to street view if you want to.
p60
aa(lp61
VNow in the video, I mentioned adding a live feed,
p62
aVwhich we can do right now, so let's add a live feed
p63
aVfrom Flickr. Go over to the right-hand side,
p64
aVgrab Flickr from the list of options,
p65
aVdrag it into the timeline,
p66
aVand put it where you'd like it to go,
p67
aVand it immediately goes out to Flickr and starts pulling in
p68
aVimages based on the tags. Now, my developers
p69
aVreally like ponies, and so they've set that as the default tag.
p70
aVLet's try something else,
p71
aVmaybe something a bit more relevant to today.
p72
aVNow here are live images being pulled straight from the feed.
p73
aVIf you come and watch this a week from now,
p74
aVthis will be completely different,
p75
aVdynamic, just like the web, and just like the web,
p76
aVeverything is sourced, so click your link,
p77
aVand you go straight to Flickr and see the source image.
p78
aa(lp79
VEverything you've seen today is built with the basic
p80
aVbuilding blocks of the web: HTML, CSS and JavaScript.
p81
aVThat means it's completely remixable. It also means
p82
aVthere's no proprietary software. All you need
p83
aVis a web browser.
p84
aa(lp85
VSo imagine if every video that we watched on the web
p86
aVworked like the web, completely remixable,
p87
aVlinked to its source content, and interactive
p88
aVfor everyone who views it.
p89
aVI think Popcorn could change the way that we tell stories on
p90
aVthe web, and the way we understand the world we live in.
p91
aVThank you. (Applause)
p92
aasS'transcript_micsec'
p93
(lp94
I12000
aI48000
aI69000
aI91000
aI112000
aI144000
aI173000
aI219000
aI233000
asS'talk_meta'
p95
(dp96
S'ratings'
p97
(dp98
S'ingenious'
p99
I186
sS'funny'
p100
I8
sS'inspiring'
p101
I91
sS'ok'
p102
I60
sS'fascinating'
p103
I88
sS'total_count'
p104
I694
sS'persuasive'
p105
I31
sS'longwinded'
p106
I2
sS'informative'
p107
I129
sS'beautiful'
p108
I11
sS'jaw-dropping'
p109
I35
sS'obnoxious'
p110
I7
sS'confusing'
p111
I4
sS'courageous'
p112
I9
sS'unconvincing'
p113
I33
ssS'author'
p114
VRyan_Merkley;
p115
sS'url'
p116
S'https://www.ted.com/talks/ryan_merkley_online_video_annotated_remixed_and_popped'
p117
sS'vidlen'
p118
I265
sS'totalviews'
p119
I697078
sS'title'
p120
VOnline video -- annotated, remixed and popped
p121
sS'downloadlink'
p122
Vhttps://download.ted.com/talks/RyanMerkley_2012G.mp4?apikey=489b859150fc58263f17110eeb44ed5fba4a3b22
p123
sS'datepublished'
p124
cdatetime
datetime
p125
(S'\x07\xdc\n\x13\x0b\x002\x00\x00\x00'
tRp126
sS'datefilmed'
p127
g125
(S'\x07\xdc\n\x13\x0b\x002\x00\x00\x00'
tRp128
sS'alldata_JSON'
p129
S'{"viewed_count": 697078, "speakers": [{"description": "COO, Mozilla Foundation", "firstname": "Ryan", "title": "", "lastname": "Merkley", "middleinitial": "", "whylisten": "<p>A native of Toronto, Canada, Ryan Merkley is the Chief Operating Officer at the Mozilla Foundation. He has devoted his career to &quot;helping users of the web become makers of the web.&quot; Merkley advocates for open data initiatives, especially in regards to the public sector. </p>", "slug": "ryan_merkley", "whotheyare": "Ryan Merkley is the Chief Operating Officer at the Mozilla Foundation, and is dedicated to making the web a more user-friendly place.", "whatotherssay": "", "id": 1421, "photo_url": "https://pe.tedcdn.com/images/ted/2031bf0c90e03e28dd5b64d3b727a277d8c5194b_254x191.jpg"}], "current_talk": 1581, "description": "Videos on the web should work like the web itself: dynamic, full of links, maps and information that can be edited and updated live, says Ryan Merkley. On the TED stage he demos Mozilla\'s Popcorn Maker, a web-based tool for easy video remixing.", "language": "en", "url": "https://www.ted.com/talks/ryan_merkley_online_video_annotated_remixed_and_popped", "media": {"internal": {"podcast-low-en": {"uri": "https://download.ted.com/talks/RyanMerkley_2012G-low-en.mp4?apikey=489b859150fc58263f17110eeb44ed5fba4a3b22", "mime_type": "video/mp4", "filesize_bytes": 6200051}, "podcast-high": {"uri": "https://download.ted.com/talks/RyanMerkley_2012G-480p.mp4?apikey=489b859150fc58263f17110eeb44ed5fba4a3b22", "mime_type": "video/mp4", "filesize_bytes": 32028243}, "180k": {"uri": "https://download.ted.com/talks/RyanMerkley_2012G-180k.mp4?apikey=489b859150fc58263f17110eeb44ed5fba4a3b22", "mime_type": "video/mp4", "filesize_bytes": 6094360}, "64k": {"uri": "https://download.ted.com/talks/RyanMerkley_2012G-64k.mp4?apikey=489b859150fc58263f17110eeb44ed5fba4a3b22", "mime_type": "video/mp4", "filesize_bytes": 2228770}, "1500k": {"uri": "https://download.ted.com/talks/RyanMerkley_2012G-1500k.mp4?apikey=489b859150fc58263f17110eeb44ed5fba4a3b22", "mime_type": "video/mp4", "filesize_bytes": 48909636}, "450k": {"uri": "https://download.ted.com/talks/RyanMerkley_2012G-450k.mp4?apikey=489b859150fc58263f17110eeb44ed5fba4a3b22", "mime_type": "video/mp4", "filesize_bytes": 15084575}, "podcast-regular": {"uri": "https://download.ted.com/talks/RyanMerkley_2012G.mp4?apikey=489b859150fc58263f17110eeb44ed5fba4a3b22", "mime_type": "video/mp4", "filesize_bytes": 15353054}, "950k": {"uri": "https://download.ted.com/talks/RyanMerkley_2012G-950k.mp4?apikey=489b859150fc58263f17110eeb44ed5fba4a3b22", "mime_type": "video/mp4", "filesize_bytes": 31792374}, "audio-podcast": {"uri": "https://download.ted.com/talks/RyanMerkley_2012G.mp3?apikey=489b859150fc58263f17110eeb44ed5fba4a3b22", "mime_type": "audio/mp3", "filesize_bytes": 3132395}, "podcast-light": {"uri": "https://download.ted.com/talks/RyanMerkley_2012G-light.mp4?apikey=489b859150fc58263f17110eeb44ed5fba4a3b22", "mime_type": "video/mp4", "filesize_bytes": 2333599}, "320k": {"uri": "https://download.ted.com/talks/RyanMerkley_2012G-320k.mp4?apikey=489b859150fc58263f17110eeb44ed5fba4a3b22", "mime_type": "video/mp4", "filesize_bytes": 10763767}, "600k": {"uri": "https://download.ted.com/talks/RyanMerkley_2012G-600k.mp4?apikey=489b859150fc58263f17110eeb44ed5fba4a3b22", "mime_type": "video/mp4", "filesize_bytes": 20361462}}}, "comments": {"count": 111, "id": 15665, "talk_id": 1581}, "slug": "ryan_merkley_online_video_annotated_remixed_and_popped", "threadId": 15665, "talks": [{"event": "TEDGlobal 2012", "player_talks": [{"event": "TEDGlobal 2012", "slug": "ryan_merkley_online_video_annotated_remixed_and_popped", "filmed": 1340668800, "targeting": {"event": "TEDGlobal 2012", "tag": "Internet,computers,interface design,online video,software,technology,web", "id": 1581, "talk": "ryan_merkley_online_video_annotated_remixed_and_popped", "year": "2012"}, "adDuration": "3.33", "external": null, "title": "Online video -- annotated, remixed and popped", "postAdDuration": "0.83", "published": 1350658850, "thumb": "https://pi.tedcdn.com/r/pe.tedcdn.com/images/ted/436bcf78e4406a81d162e90015032c45330e9ef3_1600x1200.jpg?quality=89&w=600", "name": "Ryan Merkley: Online video -- annotated, remixed and popped", "languages": [{"languageCode": "sq", "endonym": "Shqip", "isRtl": false, "ianaCode": "sq", "languageName": "Albanian"}, {"languageCode": "ar", "endonym": "\\u0627\\u0644\\u0639\\u0631\\u0628\\u064a\\u0629", "isRtl": true, "ianaCode": "ar", "languageName": "Arabic"}, {"languageCode": "bg", "endonym": "\\u0431\\u044a\\u043b\\u0433\\u0430\\u0440\\u0441\\u043a\\u0438", "isRtl": false, "ianaCode": "bg", "languageName": "Bulgarian"}, {"languageCode": "zh-cn", "endonym": "\\u4e2d\\u6587 (\\u7b80\\u4f53)", "isRtl": false, "ianaCode": "zh-Hans", "languageName": "Chinese, Simplified"}, {"languageCode": "zh-tw", "endonym": "\\u4e2d\\u6587 (\\u7e41\\u9ad4)", "isRtl": false, "ianaCode": "zh-Hant", "languageName": "Chinese, Traditional"}, {"languageCode": "hr", "endonym": "Hrvatski", "isRtl": false, "ianaCode": "hr", "languageName": "Croatian"}, {"languageCode": "cs", "endonym": "\\u010ce\\u0161tina", "isRtl": false, "ianaCode": "cs", "languageName": "Czech"}, {"languageCode": "nl", "endonym": "Nederlands", "isRtl": false, "ianaCode": "nl", "languageName": "Dutch"}, {"languageCode": "en", "endonym": "English", "isRtl": false, "ianaCode": "en", "languageName": "English"}, {"languageCode": "fr", "endonym": "Fran\\u00e7ais", "isRtl": false, "ianaCode": "fr", "languageName": "French"}, {"languageCode": "de", "endonym": "Deutsch", "isRtl": false, "ianaCode": "de", "languageName": "German"}, {"languageCode": "el", "endonym": "\\u0395\\u03bb\\u03bb\\u03b7\\u03bd\\u03b9\\u03ba\\u03ac", "isRtl": false, "ianaCode": "el", "languageName": "Greek"}, {"languageCode": "he", "endonym": "\\u05e2\\u05d1\\u05e8\\u05d9\\u05ea", "isRtl": true, "ianaCode": "he", "languageName": "Hebrew"}, {"languageCode": "hu", "endonym": "Magyar", "isRtl": false, "ianaCode": "hu", "languageName": "Hungarian"}, {"languageCode": "it", "endonym": "Italiano", "isRtl": false, "ianaCode": "it", "languageName": "Italian"}, {"languageCode": "ja", "endonym": "\\u65e5\\u672c\\u8a9e", "isRtl": false, "ianaCode": "ja", "languageName": "Japanese"}, {"languageCode": "kk", "endonym": "\\u049a\\u0430\\u0437\\u0430\\u049b \\u0442\\u0456\\u043b\\u0456", "isRtl": false, "ianaCode": "kk", "languageName": "Kazakh"}, {"languageCode": "ko", "endonym": "\\ud55c\\uad6d\\uc5b4", "isRtl": false, "ianaCode": "ko", "languageName": "Korean"}, {"languageCode": "fa", "endonym": "\\u0641\\u0627\\u0631\\u0633\\u0649", "isRtl": true, "ianaCode": "fa", "languageName": "Persian"}, {"languageCode": "pl", "endonym": "Polski", "isRtl": false, "ianaCode": "pl", "languageName": "Polish"}, {"languageCode": "pt", "endonym": "Portugu\\u00eas de Portugal", "isRtl": false, "ianaCode": "pt", "languageName": "Portuguese"}, {"languageCode": "pt-br", "endonym": "Portugu\\u00eas brasileiro", "isRtl": false, "ianaCode": "pt-BR", "languageName": "Portuguese, Brazilian"}, {"languageCode": "ro", "endonym": "Rom\\u00e2n\\u0103", "isRtl": false, "ianaCode": "ro", "languageName": "Romanian"}, {"languageCode": "ru", "endonym": "\\u0420\\u0443\\u0441\\u0441\\u043a\\u0438\\u0439", "isRtl": false, "ianaCode": "ru", "languageName": "Russian"}, {"languageCode": "sr", "endonym": "\\u0421\\u0440\\u043f\\u0441\\u043a\\u0438, Srpski", "isRtl": false, "ianaCode": "sr", "languageName": "Serbian"}, {"languageCode": "sk", "endonym": "Sloven\\u010dina", "isRtl": false, "ianaCode": "sk", "languageName": "Slovak"}, {"languageCode": "es", "endonym": "Espa\\u00f1ol", "isRtl": false, "ianaCode": "es", "languageName": "Spanish"}, {"languageCode": "tr", "endonym": "T\\u00fcrk\\u00e7e", "isRtl": false, "ianaCode": "tr", "languageName": "Turkish"}, {"languageCode": "uk", "endonym": "\\u0423\\u043a\\u0440\\u0430\\u0457\\u043d\\u0441\\u044c\\u043a\\u0430", "isRtl": false, "ianaCode": "uk", "languageName": "Ukrainian"}, {"languageCode": "vi", "endonym": "Ti\\u1ebfng Vi\\u1ec7t", "isRtl": false, "ianaCode": "vi", "languageName": "Vietnamese"}], "nativeLanguage": "en", "tags": ["Internet", "computers", "interface design", "online video", "software", "technology", "web"], "speaker": "Ryan Merkley", "isSubtitleRequired": false, "introDuration": 11.82, "duration": 265, "id": 1581, "resources": {"h264": [{"bitrate": 320, "file": "https://download.ted.com/talks/RyanMerkley_2012G-320k.mp4?dnt"}], "hls": {"maiTargeting": {"event": "TEDGlobal 2012", "tag": "Internet,computers,interface design,online video,software,technology,web", "id": 1581, "talk": "ryan_merkley_online_video_annotated_remixed_and_popped", "year": "2012"}, "metadata": "https://hls.ted.com/talks/1581.json", "stream": "https://hls.ted.com/talks/1581.m3u8", "adUrl": "https://pubads.g.doubleclick.net/gampad/ads?ciu_szs=300x250%2C512x288%2C120x60%2C320x50%2C6x7%2C6x8&correlator=%5Bcorrelator%5D&cust_params=event%3DTEDGlobal%2B2012%26id%3D1581%26tag%3DInternet%2Ccomputers%2Cinterface%2Bdesign%2Conline%2Bvideo%2Csoftware%2Ctechnology%2Cweb%26talk%3Dryan_merkley_online_video_annotated_remixed_and_popped%26year%3D2012&env=vp&gdfp_req=1&impl=s&iu=%2F5641%2Fmobile%2Fios%2Fweb&output=xml_vast2&sz=640x360&unviewed_position_start=1&url=%5Breferrer%5D"}}, "canonical": "https://www.ted.com/talks/ryan_merkley_online_video_annotated_remixed_and_popped"}], "hero_load": "https://pi.tedcdn.com/r/pe.tedcdn.com/images/ted/436bcf78e4406a81d162e90015032c45330e9ef3_1600x1200.jpg?q=50&w=15", "duration": 265, "id": 1581, "ratings": [{"count": 31, "id": 24, "name": "Persuasive"}, {"count": 88, "id": 22, "name": "Fascinating"}, {"count": 91, "id": 10, "name": "Inspiring"}, {"count": 186, "id": 9, "name": "Ingenious"}, {"count": 129, "id": 8, "name": "Informative"}, {"count": 33, "id": 21, "name": "Unconvincing"}, {"count": 60, "id": 25, "name": "OK"}, {"count": 35, "id": 23, "name": "Jaw-dropping"}, {"count": 9, "id": 3, "name": "Courageous"}, {"count": 8, "id": 7, "name": "Funny"}, {"count": 7, "id": 26, "name": "Obnoxious"}, {"count": 11, "id": 1, "name": "Beautiful"}, {"count": 2, "id": 11, "name": "Longwinded"}, {"count": 4, "id": 2, "name": "Confusing"}], "speakers": [{"description": "COO, Mozilla Foundation", "firstname": "Ryan", "title": "", "lastname": "Merkley", "middleinitial": "", "whylisten": "<p>A native of Toronto, Canada, Ryan Merkley is the Chief Operating Officer at the Mozilla Foundation. He has devoted his career to &quot;helping users of the web become makers of the web.&quot; Merkley advocates for open data initiatives, especially in regards to the public sector. </p>", "slug": "ryan_merkley", "whotheyare": "Ryan Merkley is the Chief Operating Officer at the Mozilla Foundation, and is dedicated to making the web a more user-friendly place.", "whatotherssay": "", "id": 1421, "photo_url": "https://pe.tedcdn.com/images/ted/2031bf0c90e03e28dd5b64d3b727a277d8c5194b_254x191.jpg"}], "title": "Online video -- annotated, remixed and popped", "take_action": null, "comments": 15665, "more_resources": null, "hero": "https://pe.tedcdn.com/images/ted/436bcf78e4406a81d162e90015032c45330e9ef3_1600x1200.jpg", "description": "Videos on the web should work like the web itself: dynamic, full of links, maps and information that can be edited and updated live, says Ryan Merkley. On the TED stage he demos Mozilla\'s Popcorn Maker, a web-based tool for easy video remixing.", "tags": ["Internet", "computers", "interface design", "online video", "software", "technology", "web"], "downloads": {"languages": [{"languageCode": "sq", "endonym": "Shqip", "isRtl": false, "ianaCode": "sq", "languageName": "Albanian"}, {"languageCode": "ar", "endonym": "\\u0627\\u0644\\u0639\\u0631\\u0628\\u064a\\u0629", "isRtl": true, "ianaCode": "ar", "languageName": "Arabic"}, {"languageCode": "bg", "endonym": "\\u0431\\u044a\\u043b\\u0433\\u0430\\u0440\\u0441\\u043a\\u0438", "isRtl": false, "ianaCode": "bg", "languageName": "Bulgarian"}, {"languageCode": "zh-cn", "endonym": "\\u4e2d\\u6587 (\\u7b80\\u4f53)", "isRtl": false, "ianaCode": "zh-Hans", "languageName": "Chinese, Simplified"}, {"languageCode": "zh-tw", "endonym": "\\u4e2d\\u6587 (\\u7e41\\u9ad4)", "isRtl": false, "ianaCode": "zh-Hant", "languageName": "Chinese, Traditional"}, {"languageCode": "hr", "endonym": "Hrvatski", "isRtl": false, "ianaCode": "hr", "languageName": "Croatian"}, {"languageCode": "cs", "endonym": "\\u010ce\\u0161tina", "isRtl": false, "ianaCode": "cs", "languageName": "Czech"}, {"languageCode": "nl", "endonym": "Nederlands", "isRtl": false, "ianaCode": "nl", "languageName": "Dutch"}, {"languageCode": "en", "endonym": "English", "isRtl": false, "ianaCode": "en", "languageName": "English"}, {"languageCode": "fr", "endonym": "Fran\\u00e7ais", "isRtl": false, "ianaCode": "fr", "languageName": "French"}, {"languageCode": "de", "endonym": "Deutsch", "isRtl": false, "ianaCode": "de", "languageName": "German"}, {"languageCode": "el", "endonym": "\\u0395\\u03bb\\u03bb\\u03b7\\u03bd\\u03b9\\u03ba\\u03ac", "isRtl": false, "ianaCode": "el", "languageName": "Greek"}, {"languageCode": "he", "endonym": "\\u05e2\\u05d1\\u05e8\\u05d9\\u05ea", "isRtl": true, "ianaCode": "he", "languageName": "Hebrew"}, {"languageCode": "hu", "endonym": "Magyar", "isRtl": false, "ianaCode": "hu", "languageName": "Hungarian"}, {"languageCode": "it", "endonym": "Italiano", "isRtl": false, "ianaCode": "it", "languageName": "Italian"}, {"languageCode": "ja", "endonym": "\\u65e5\\u672c\\u8a9e", "isRtl": false, "ianaCode": "ja", "languageName": "Japanese"}, {"languageCode": "kk", "endonym": "\\u049a\\u0430\\u0437\\u0430\\u049b \\u0442\\u0456\\u043b\\u0456", "isRtl": false, "ianaCode": "kk", "languageName": "Kazakh"}, {"languageCode": "ko", "endonym": "\\ud55c\\uad6d\\uc5b4", "isRtl": false, "ianaCode": "ko", "languageName": "Korean"}, {"languageCode": "fa", "endonym": "\\u0641\\u0627\\u0631\\u0633\\u0649", "isRtl": true, "ianaCode": "fa", "languageName": "Persian"}, {"languageCode": "pl", "endonym": "Polski", "isRtl": false, "ianaCode": "pl", "languageName": "Polish"}, {"languageCode": "pt", "endonym": "Portugu\\u00eas de Portugal", "isRtl": false, "ianaCode": "pt", "languageName": "Portuguese"}, {"languageCode": "pt-br", "endonym": "Portugu\\u00eas brasileiro", "isRtl": false, "ianaCode": "pt-BR", "languageName": "Portuguese, Brazilian"}, {"languageCode": "ro", "endonym": "Rom\\u00e2n\\u0103", "isRtl": false, "ianaCode": "ro", "languageName": "Romanian"}, {"languageCode": "ru", "endonym": "\\u0420\\u0443\\u0441\\u0441\\u043a\\u0438\\u0439", "isRtl": false, "ianaCode": "ru", "languageName": "Russian"}, {"languageCode": "sr", "endonym": "\\u0421\\u0440\\u043f\\u0441\\u043a\\u0438, Srpski", "isRtl": false, "ianaCode": "sr", "languageName": "Serbian"}, {"languageCode": "sk", "endonym": "Sloven\\u010dina", "isRtl": false, "ianaCode": "sk", "languageName": "Slovak"}, {"languageCode": "es", "endonym": "Espa\\u00f1ol", "isRtl": false, "ianaCode": "es", "languageName": "Spanish"}, {"languageCode": "tr", "endonym": "T\\u00fcrk\\u00e7e", "isRtl": false, "ianaCode": "tr", "languageName": "Turkish"}, {"languageCode": "uk", "endonym": "\\u0423\\u043a\\u0440\\u0430\\u0457\\u043d\\u0441\\u044c\\u043a\\u0430", "isRtl": false, "ianaCode": "uk", "languageName": "Ukrainian"}, {"languageCode": "vi", "endonym": "Ti\\u1ebfng Vi\\u1ec7t", "isRtl": false, "ianaCode": "vi", "languageName": "Vietnamese"}], "subtitledDownloads": {"el": {"high": "https://download.ted.com/talks/RyanMerkley_2012G-480p-el.mp4", "name": "Greek", "low": "https://download.ted.com/talks/RyanMerkley_2012G-low-el.mp4"}, "en": {"name": "English", "low": "https://download.ted.com/talks/RyanMerkley_2012G-low-en.mp4"}, "vi": {"high": "https://download.ted.com/talks/RyanMerkley_2012G-480p-vi.mp4", "name": "Vietnamese", "low": "https://download.ted.com/talks/RyanMerkley_2012G-low-vi.mp4"}, "it": {"high": "https://download.ted.com/talks/RyanMerkley_2012G-480p-it.mp4", "name": "Italian"}, "ar": {"name": "Arabic", "low": "https://download.ted.com/talks/RyanMerkley_2012G-low-ar.mp4"}, "pt-br": {"high": "https://download.ted.com/talks/RyanMerkley_2012G-480p-pt-br.mp4", "name": "Portuguese, Brazilian", "low": "https://download.ted.com/talks/RyanMerkley_2012G-low-pt-br.mp4"}, "cs": {"high": "https://download.ted.com/talks/RyanMerkley_2012G-480p-cs.mp4", "name": "Czech", "low": "https://download.ted.com/talks/RyanMerkley_2012G-low-cs.mp4"}, "es": {"high": "https://download.ted.com/talks/RyanMerkley_2012G-480p-es.mp4", "name": "Spanish"}, "ru": {"high": "https://download.ted.com/talks/RyanMerkley_2012G-480p-ru.mp4", "name": "Russian", "low": "https://download.ted.com/talks/RyanMerkley_2012G-low-ru.mp4"}, "nl": {"high": "https://download.ted.com/talks/RyanMerkley_2012G-480p-nl.mp4", "name": "Dutch", "low": "https://download.ted.com/talks/RyanMerkley_2012G-low-nl.mp4"}, "pt": {"high": "https://download.ted.com/talks/RyanMerkley_2012G-480p-pt.mp4", "name": "Portuguese", "low": "https://download.ted.com/talks/RyanMerkley_2012G-low-pt.mp4"}, "zh-tw": {"high": "https://download.ted.com/talks/RyanMerkley_2012G-480p-zh-tw.mp4", "name": "Chinese, Traditional"}, "tr": {"high": "https://download.ted.com/talks/RyanMerkley_2012G-480p-tr.mp4", "name": "Turkish", "low": "https://download.ted.com/talks/RyanMerkley_2012G-low-tr.mp4"}, "zh-cn": {"high": "https://download.ted.com/talks/RyanMerkley_2012G-480p-zh-cn.mp4", "name": "Chinese, Simplified", "low": "https://download.ted.com/talks/RyanMerkley_2012G-low-zh-cn.mp4"}, "ro": {"high": "https://download.ted.com/talks/RyanMerkley_2012G-480p-ro.mp4", "name": "Romanian", "low": "https://download.ted.com/talks/RyanMerkley_2012G-low-ro.mp4"}, "pl": {"high": "https://download.ted.com/talks/RyanMerkley_2012G-480p-pl.mp4", "name": "Polish"}, "fr": {"high": "https://download.ted.com/talks/RyanMerkley_2012G-480p-fr.mp4", "name": "French"}, "bg": {"high": "https://download.ted.com/talks/RyanMerkley_2012G-480p-bg.mp4", "name": "Bulgarian", "low": "https://download.ted.com/talks/RyanMerkley_2012G-low-bg.mp4"}, "hr": {"high": "https://download.ted.com/talks/RyanMerkley_2012G-480p-hr.mp4", "name": "Croatian"}, "de": {"high": "https://download.ted.com/talks/RyanMerkley_2012G-480p-de.mp4", "name": "German", "low": "https://download.ted.com/talks/RyanMerkley_2012G-low-de.mp4"}, "hu": {"high": "https://download.ted.com/talks/RyanMerkley_2012G-480p-hu.mp4", "name": "Hungarian", "low": "https://download.ted.com/talks/RyanMerkley_2012G-low-hu.mp4"}, "fa": {"name": "Persian", "low": "https://download.ted.com/talks/RyanMerkley_2012G-low-fa.mp4"}, "ja": {"high": "https://download.ted.com/talks/RyanMerkley_2012G-480p-ja.mp4", "name": "Japanese", "low": "https://download.ted.com/talks/RyanMerkley_2012G-low-ja.mp4"}, "he": {"high": "https://download.ted.com/talks/RyanMerkley_2012G-480p-he.mp4", "name": "Hebrew", "low": "https://download.ted.com/talks/RyanMerkley_2012G-low-he.mp4"}, "kk": {"high": "https://download.ted.com/talks/RyanMerkley_2012G-480p-kk.mp4", "name": "Kazakh"}, "sr": {"high": "https://download.ted.com/talks/RyanMerkley_2012G-480p-sr.mp4", "name": "Serbian", "low": "https://download.ted.com/talks/RyanMerkley_2012G-low-sr.mp4"}, "sq": {"high": "https://download.ted.com/talks/RyanMerkley_2012G-480p-sq.mp4", "name": "Albanian"}, "ko": {"high": "https://download.ted.com/talks/RyanMerkley_2012G-480p-ko.mp4", "name": "Korean"}, "sk": {"high": "https://download.ted.com/talks/RyanMerkley_2012G-480p-sk.mp4", "name": "Slovak", "low": "https://download.ted.com/talks/RyanMerkley_2012G-low-sk.mp4"}, "uk": {"high": "https://download.ted.com/talks/RyanMerkley_2012G-480p-uk.mp4", "name": "Ukrainian", "low": "https://download.ted.com/talks/RyanMerkley_2012G-low-uk.mp4"}}, "nativeDownloads": {"high": "https://download.ted.com/talks/RyanMerkley_2012G-480p.mp4?apikey=489b859150fc58263f17110eeb44ed5fba4a3b22", "medium": "https://download.ted.com/talks/RyanMerkley_2012G.mp4?apikey=489b859150fc58263f17110eeb44ed5fba4a3b22", "low": "https://download.ted.com/talks/RyanMerkley_2012G-light.mp4?apikey=489b859150fc58263f17110eeb44ed5fba4a3b22"}, "id": 1581, "audioDownload": "https://download.ted.com/talks/RyanMerkley_2012G.mp3?apikey=489b859150fc58263f17110eeb44ed5fba4a3b22"}, "related_talks": [{"viewed_count": 1614501, "hero": "https://pe.tedcdn.com/images/ted/2200f4bfdc4e1aff84a34e7c0be1371e8ca72925_800x600.jpg", "title": "404, the story of a page not found", "id": 1444, "speaker": "Renny Gleeson", "duration": 247, "slug": "renny_gleeson_404_the_story_of_a_page_not_found"}, {"viewed_count": 346285, "hero": "https://pe.tedcdn.com/images/ted/371_480x360.jpg", "title": "The Web as a city", "id": 362, "speaker": "Steven Johnson", "duration": 990, "slug": "steven_johnson_on_the_web_as_a_city"}, {"viewed_count": 1360551, "hero": "https://pe.tedcdn.com/images/ted/77260_800x600.jpg", "title": "The next web", "id": 484, "speaker": "Tim Berners-Lee", "duration": 983, "slug": "tim_berners_lee_on_the_next_web"}, {"viewed_count": 1058270, "hero": "https://pe.tedcdn.com/images/ted/39a923a807cd8dfac8bfcd867963ebf99c3be2fd_2400x1800.jpg", "title": "A Magna Carta for the web", "id": 2061, "speaker": "Tim Berners-Lee", "duration": 403, "slug": "tim_berners_lee_a_magna_carta_for_the_web"}, {"viewed_count": 4071680, "hero": "https://pe.tedcdn.com/images/ted/0f550197b90f20147576a51962258dc5ac7ac82d_800x600.jpg", "title": "Beware online \\"filter bubbles\\"", "id": 1091, "speaker": "Eli Pariser", "duration": 544, "slug": "eli_pariser_beware_online_filter_bubbles"}, {"viewed_count": 656423, "hero": "https://pe.tedcdn.com/images/ted/153652_800x600.jpg", "title": "Is Pivot a turning point for web exploration?", "id": 783, "speaker": "Gary Flake", "duration": 385, "slug": "gary_flake_is_pivot_a_turning_point_for_web_exploration"}], "recorded_at": "2012-06-26T00:00:00.000+00:00", "slug": "ryan_merkley_online_video_annotated_remixed_and_popped", "speaker_name": "Ryan Merkley", "viewed_count": 697078, "event_badge": null, "event_blurb": "This talk was presented at an official TED conference, and was featured by our editors on the home page.", "recommendations": null, "corrections": null}], "event": "TEDGlobal 2012", "name": "Ryan Merkley: Online video -- annotated, remixed and popped"}'
p130
sS'keywords'
p131
(lp132
VInternet
p133
aVcomputers
p134
aVinterface design
p135
aVonline video
p136
aVsoftware
p137
aVtechnology
p138
aVweb
p139
asS'datecrawled'
p140
g125
(S'\x07\xe1\n\x17\x02\t0\x04b\xa5'
tRp141
sS'id'
p142
I1581
ss.