(dp1
S'talk_transcript'
p2
(lp3
(lp4
VTwo years ago here at TED
p5
aVI reported that we had discovered
p6
aVat Saturn, with the Cassini Spacecraft,
p7
aVan anomalously warm and geologically active region
p8
aVat the southern tip of the small Saturnine moon
p9
aVEnceladus, seen here.
p10
aVThis region seen here for the first time
p11
aVin the Cassini image taken in 2005. This is the south polar region,
p12
aVwith the famous tiger-stripe fractures crossing the south pole.
p13
aVAnd seen just recently in late 2008,
p14
aVhere is that region again,
p15
aVnow half in darkness because the southern hemisphere
p16
aVis experiencing the onset of August
p17
aVand eventually winter.
p18
aa(lp19
VAnd I also reported that we'd made this mind-blowing discovery \u2014
p20
aVthis once-in-a-lifetime discovery
p21
aVof towering jets
p22
aVerupting from those fractures at the south pole,
p23
aVconsisting of tiny water ice crystals
p24
aVaccompanied by water vapor
p25
aVand simple organic compounds like carbon dioxide and methane.
p26
aVAnd at that time two years ago
p27
aVI mentioned that we were speculating
p28
aVthat these jets might in fact be geysers,
p29
aVand erupting from pockets
p30
aVor chambers of liquid water underneath the surface,
p31
aVbut we weren't really sure.
p32
aVHowever, the implications of those results \u2014
p33
aVof a possible environment within this moon
p34
aVthat could support prebiotic chemistry,
p35
aVand perhaps life itself \u2014
p36
aVwere so exciting that, in the intervening two years,
p37
aVwe have focused more on Enceladus.
p38
aa(lp39
VWe've flown the Cassini Spacecraft
p40
aVby this moon now several times,
p41
aVflying closer and deeper into these jets,
p42
aVinto the denser regions of these jets,
p43
aVso that now we have come away with some
p44
aVvery precise compositional measurements.
p45
aVAnd we have found
p46
aVthat the organic compounds coming from this moon
p47
aVare in fact more complex than we previously reported.
p48
aVWhile they're not amino acids,
p49
aVwe're now finding things like
p50
aVpropane and benzene,
p51
aVhydrogen cyanide, and formaldehyde.
p52
aVAnd the tiny water crystals here
p53
aVnow look for all the world
p54
aVlike they are frozen droplets of salty water,
p55
aVwhich is a discovery that suggests
p56
aVthat not only do the jets come from
p57
aVpockets of liquid water,
p58
aVbut that that liquid water is in contact with rock.
p59
aVAnd that is a circumstance
p60
aVthat could supply the chemical energy
p61
aVand the chemical compounds needed to sustain life.
p62
aa(lp63
VSo we are very encouraged by these results.
p64
aVAnd we are much more confident now than we were two years ago
p65
aVthat we might indeed
p66
aVhave on this moon, under the south pole,
p67
aVan environment or a zone that is hospitable to living organisms.
p68
aVWhether or not there are living organisms there, of course,
p69
aVis an entirely different matter.
p70
aVAnd that will have to await the arrival,
p71
aVback at Enceladus,
p72
aVof the spacecrafts, hopefully some time in the near future,
p73
aVspecifically equipped to address that particular question.
p74
aVBut in the meantime I invite you to imagine the day
p75
aVwhen we might journey to the Saturnine system,
p76
aVand visit the Enceladus interplanetary geyser park,
p77
aVjust because we can.
p78
aa(lp79
VThank you.
p80
aa(lp81
V(Applause)
p82
aasS'transcript_micsec'
p83
(lp84
I11000
aI50000
aI96000
aI150000
aI194000
aI196000
asS'talk_meta'
p85
(dp86
S'ratings'
p87
(dp88
S'ingenious'
p89
I11
sS'beautiful'
p90
I45
sS'inspiring'
p91
I99
sS'ok'
p92
I68
sS'fascinating'
p93
I499
sS'funny'
p94
I4
sS'total_count'
p95
I1134
sS'persuasive'
p96
I39
sS'longwinded'
p97
I4
sS'informative'
p98
I279
sS'jaw-dropping'
p99
I44
sS'obnoxious'
p100
I6
sS'confusing'
p101
I5
sS'courageous'
p102
I12
sS'unconvincing'
p103
I19
ssS'author'
p104
VCarolyn_Porco;
p105
sS'url'
p106
S'https://www.ted.com/talks/carolyn_porco_could_a_saturn_moon_harbor_life'
p107
sS'vidlen'
p108
I209
sS'totalviews'
p109
I892398
sS'title'
p110
VCould a Saturn moon harbor life?
p111
sS'downloadlink'
p112
Vhttps://download.ted.com/talks/CarolynPorco_2009U.mp4?apikey=489b859150fc58263f17110eeb44ed5fba4a3b22
p113
sS'datepublished'
p114
cdatetime
datetime
p115
(S'\x07\xd9\x05\x15\x05\x01\x00\x00\x00\x00'
tRp116
sS'datefilmed'
p117
g115
(S'\x07\xd9\x05\x15\x05\x01\x00\x00\x00\x00'
tRp118
sS'alldata_JSON'
p119
S'{"viewed_count": 892398, "speakers": [{"description": "Planetary scientist", "firstname": "Carolyn", "title": "", "lastname": "Porco", "middleinitial": "", "whylisten": "<p class=\\"p1\\">Planetary scientist Carolyn Porco studies and interprets the photos from NASA space missions like the renowned <em>Voyager</em> mission to the outer solar system in the 1980s and the <em>Cassini-Huygens</em> mission to Saturn. She leads a team of scientists from the US and Europe that has been analyzing the <a href=\\"http://ciclops.org/ir_index_main.php%22%20%5Ct%20%22_blank\\"><span class=\\"s1\\">images</span></a> <em>Cassini</em> has sent back since it left Earth in 1997. At Saturn, they have found new phenomena everywhere they&#39;ve turned their cameras &hellip; in the planet&rsquo;s atmosphere, within its rings and on the surfaces of its many moons. And they&#39;ve produced spectacular <strong>images and animations of these marvels in the process.</strong></p><p class=\\"p1\\">Back in the early-1980s, while still working on her doctorate, Porco was drafted onto the <em>Voyager</em> imaging team to assist in crunching the mountains of data coming back from <em>Voyager&rsquo;s</em> fly-by of Saturn. Her work on the planet&#39;s rings and their relation to its moons cemented her connection with Saturn. After <em>Voyager</em> had flown by Neptune and<em> </em>was nearing conclusion, she worked together with Carl Sagan in planning <em>Voyager&rsquo;s&nbsp;</em>celebrated <em>Pale Blue Dot</em> picture of Earth.</p><p class=\\"p1\\">Her ongoing work at the <a href=\\"http://ciclops.org/index.php%22%20%5Ct%20%22_blank\\"><span class=\\"s1\\">Cassini Imaging Central Laboratory for Operations (CICLOPs)</span></a> has two goals: to process, interpret and archive&nbsp;<em>Cassini&rsquo;s</em> images for other scientists, and to make sure the images -- in all <strong>their breathtaking poetry and mystery and sheer Save-Image-As-Desktop awesomeness</strong> -- connect with the general public. She is an advocate for the exploration and understanding of planetary space, and her frequent talks (as well as her <a href=\\"http://ciclops.org/index.php%22%20%5Ct%20%22_blank\\"><span class=\\"s1\\">&quot;Captain&#39;s Log&quot; memos</span></a> on the CICLOPS website) speak to everyone, scientist and nonscientist alike. Her advocacy extends to Hollywood, where she was the character consultant on the 1997 movie &ldquo;<em>Contact</em>,&rdquo; and a consultant on the 2009 Paramount Pictures re-boot of &ldquo;<em>Star Trek</em>.&rdquo; In 2012, she was named one the 25 most influential people in space by <em>TIME</em> magazine.</p><p class=\\"p1\\">Finally, in a twist on the Pale Blue Dot theme, it was she who conceived the idea to invite the people of the world to smile while <em>Cassini&nbsp;</em>imaged the Earth on July 19, 2013 in an event called &ldquo;The Day the Earth Smiled.&rdquo;</p><p class=\\"p1\\">For more information:&nbsp;</p><p class=\\"p1\\"><a href=\\"http://www.ciclops.org/view/3211/Solar-System-Portrait---Earth-as-Pale-Blue-Dot\\" target=\\"_blank\\">Solar System Portrait: Earth as &#39;Pale Blue Dot&#39;</a></p><p class=\\"p1\\"><a href=\\"http://www.bbc.com/news/science-environment-24913141\\" target=\\"_blank\\">BBC: Saturn snapped as Earth smiled</a></p><p class=\\"p1\\"><a href=\\"http://www.theatlantic.com/technology/archive/2013/11/the-carl-sagan-of-our-time-reprises-the-pale-blue-dot-photo-of-earth/281414/\\" target=\\"_blank\\">The Atlantic:&nbsp;The Carl Sagan of Our Time Reprises the &#39;Pale Blue Dot&#39; Photo of Earth</a> </p><p class=\\"p1\\"><a href=\\"http://www.ciclops.org/view.php?id=7699\\" target=\\"_blank\\">The Day the Earth Smiled: Image</a></p><p class=\\"p1\\"><a href=\\"http://blogs.loc.gov/loc/2013/11/portraits-of-the-solar-system-talking-with-carolyn-porco-about-carl-sagan/\\" target=\\"_blank\\">Library of Congress: Portraits of the Solar System: Talking with Carolyn Porco About Carl Sagan</a> &nbsp;</p>", "slug": "carolyn_porco", "whotheyare": "As the leader of the Imaging Team on the Cassini mission to Saturn, Carolyn Porco interprets and shares the pictures coming back from this fascinating planet, its rings and its moons.", "whatotherssay": "", "id": 160, "photo_url": "https://pe.tedcdn.com/images/ted/16793_254x191.jpg"}], "current_talk": 551, "description": "Carolyn Porco shares exciting new findings from the Cassini spacecraft\'s recent sweep of one of Saturn\'s moons, Enceladus. Samples gathered from the moon\'s icy geysers hint that an ocean under its surface could harbor life.", "language": "en", "url": "https://www.ted.com/talks/carolyn_porco_could_a_saturn_moon_harbor_life", "media": {"internal": {"podcast-high-en": {"uri": "https://download.ted.com/talks/CarolynPorco_2009U-480p-en.mp4?apikey=489b859150fc58263f17110eeb44ed5fba4a3b22", "mime_type": "video/mp4", "filesize_bytes": 24013385}, "podcast-low-en": {"uri": "https://download.ted.com/talks/CarolynPorco_2009U-low-en.mp4?apikey=489b859150fc58263f17110eeb44ed5fba4a3b22", "mime_type": "video/mp4", "filesize_bytes": 4773278}, "podcast-high": {"uri": "https://download.ted.com/talks/CarolynPorco_2009U-480p.mp4?apikey=489b859150fc58263f17110eeb44ed5fba4a3b22", "mime_type": "video/mp4", "filesize_bytes": 23974340}, "180k": {"uri": "https://download.ted.com/talks/CarolynPorco_2009U-180k.mp4?apikey=489b859150fc58263f17110eeb44ed5fba4a3b22", "mime_type": "video/mp4", "filesize_bytes": 4662948}, "64k": {"uri": "https://download.ted.com/talks/CarolynPorco_2009U-64k.mp4?apikey=489b859150fc58263f17110eeb44ed5fba4a3b22", "mime_type": "video/mp4", "filesize_bytes": 1711601}, "1500k": {"uri": "https://download.ted.com/talks/CarolynPorco_2009U-1500k.mp4?apikey=489b859150fc58263f17110eeb44ed5fba4a3b22", "mime_type": "video/mp4", "filesize_bytes": 37732508}, "450k": {"uri": "https://download.ted.com/talks/CarolynPorco_2009U-450k.mp4?apikey=489b859150fc58263f17110eeb44ed5fba4a3b22", "mime_type": "video/mp4", "filesize_bytes": 11564588}, "podcast-regular": {"uri": "https://download.ted.com/talks/CarolynPorco_2009U.mp4?apikey=489b859150fc58263f17110eeb44ed5fba4a3b22", "mime_type": "video/mp4", "filesize_bytes": 11839202}, "950k": {"uri": "https://download.ted.com/talks/CarolynPorco_2009U-950k.mp4?apikey=489b859150fc58263f17110eeb44ed5fba4a3b22", "mime_type": "video/mp4", "filesize_bytes": 23721062}, "audio-podcast": {"uri": "https://download.ted.com/talks/CarolynPorco_2009U.mp3?apikey=489b859150fc58263f17110eeb44ed5fba4a3b22", "mime_type": "audio/mp3", "filesize_bytes": 2295280}, "podcast-light": {"uri": "https://download.ted.com/talks/CarolynPorco_2009U-light.mp4?apikey=489b859150fc58263f17110eeb44ed5fba4a3b22", "mime_type": "video/mp4", "filesize_bytes": 1811433}, "320k": {"uri": "https://download.ted.com/talks/CarolynPorco_2009U-320k.mp4?apikey=489b859150fc58263f17110eeb44ed5fba4a3b22", "mime_type": "video/mp4", "filesize_bytes": 8269816}, "600k": {"uri": "https://download.ted.com/talks/CarolynPorco_2009U-600k.mp4?apikey=489b859150fc58263f17110eeb44ed5fba4a3b22", "mime_type": "video/mp4", "filesize_bytes": 15366263}}}, "comments": {"count": 181, "id": 456, "talk_id": 551}, "slug": "carolyn_porco_could_a_saturn_moon_harbor_life", "threadId": 456, "talks": [{"event": "TED2009", "player_talks": [{"event": "TED2009", "slug": "carolyn_porco_could_a_saturn_moon_harbor_life", "filmed": 1233878400, "targeting": {"event": "TED2009", "tag": "Planets,astronomy,exploration,life,science,solar system,space,technology", "id": 551, "talk": "carolyn_porco_could_a_saturn_moon_harbor_life", "year": "2009"}, "adDuration": "3.33", "external": null, "title": "Could a Saturn moon harbor life?", "postAdDuration": "0.83", "published": 1242896460, "thumb": "https://pi.tedcdn.com/r/pe.tedcdn.com/images/ted/87925_800x600.jpg?quality=89&w=600", "name": "Carolyn Porco: Could a Saturn moon harbor life?", "languages": [{"languageCode": "sq", "endonym": "Shqip", "isRtl": false, "ianaCode": "sq", "languageName": "Albanian"}, {"languageCode": "ar", "endonym": "\\u0627\\u0644\\u0639\\u0631\\u0628\\u064a\\u0629", "isRtl": true, "ianaCode": "ar", "languageName": "Arabic"}, {"languageCode": "bg", "endonym": "\\u0431\\u044a\\u043b\\u0433\\u0430\\u0440\\u0441\\u043a\\u0438", "isRtl": false, "ianaCode": "bg", "languageName": "Bulgarian"}, {"languageCode": "my", "endonym": "\\u1019\\u103c\\u1014\\u103a\\u1019\\u102c\\u1018\\u102c\\u101e\\u102c", "isRtl": false, "ianaCode": "my", "languageName": "Burmese"}, {"languageCode": "zh-cn", "endonym": "\\u4e2d\\u6587 (\\u7b80\\u4f53)", "isRtl": false, "ianaCode": "zh-Hans", "languageName": "Chinese, Simplified"}, {"languageCode": "zh-tw", "endonym": "\\u4e2d\\u6587 (\\u7e41\\u9ad4)", "isRtl": false, "ianaCode": "zh-Hant", "languageName": "Chinese, Traditional"}, {"languageCode": "hr", "endonym": "Hrvatski", "isRtl": false, "ianaCode": "hr", "languageName": "Croatian"}, {"languageCode": "cs", "endonym": "\\u010ce\\u0161tina", "isRtl": false, "ianaCode": "cs", "languageName": "Czech"}, {"languageCode": "da", "endonym": "Dansk", "isRtl": false, "ianaCode": "da", "languageName": "Danish"}, {"languageCode": "nl", "endonym": "Nederlands", "isRtl": false, "ianaCode": "nl", "languageName": "Dutch"}, {"languageCode": "en", "endonym": "English", "isRtl": false, "ianaCode": "en", "languageName": "English"}, {"languageCode": "eo", "endonym": "Esperanto", "isRtl": false, "ianaCode": "eo", "languageName": "Esperanto"}, {"languageCode": "fr", "endonym": "Fran\\u00e7ais", "isRtl": false, "ianaCode": "fr", "languageName": "French"}, {"languageCode": "de", "endonym": "Deutsch", "isRtl": false, "ianaCode": "de", "languageName": "German"}, {"languageCode": "el", "endonym": "\\u0395\\u03bb\\u03bb\\u03b7\\u03bd\\u03b9\\u03ba\\u03ac", "isRtl": false, "ianaCode": "el", "languageName": "Greek"}, {"languageCode": "he", "endonym": "\\u05e2\\u05d1\\u05e8\\u05d9\\u05ea", "isRtl": true, "ianaCode": "he", "languageName": "Hebrew"}, {"languageCode": "hi", "endonym": "\\u0939\\u093f\\u0928\\u094d\\u0926\\u0940", "isRtl": false, "ianaCode": "hi", "languageName": "Hindi"}, {"languageCode": "hu", "endonym": "Magyar", "isRtl": false, "ianaCode": "hu", "languageName": "Hungarian"}, {"languageCode": "id", "endonym": "Bahasa Indonesia", "isRtl": false, "ianaCode": "id", "languageName": "Indonesian"}, {"languageCode": "it", "endonym": "Italiano", "isRtl": false, "ianaCode": "it", "languageName": "Italian"}, {"languageCode": "ja", "endonym": "\\u65e5\\u672c\\u8a9e", "isRtl": false, "ianaCode": "ja", "languageName": "Japanese"}, {"languageCode": "ko", "endonym": "\\ud55c\\uad6d\\uc5b4", "isRtl": false, "ianaCode": "ko", "languageName": "Korean"}, {"languageCode": "lv", "endonym": "Latvie\\u0161u", "isRtl": false, "ianaCode": "lv", "languageName": "Latvian"}, {"languageCode": "nb", "endonym": "Norsk bokm\\u00e5l", "isRtl": false, "ianaCode": "nb", "languageName": "Norwegian Bokmal"}, {"languageCode": "fa", "endonym": "\\u0641\\u0627\\u0631\\u0633\\u0649", "isRtl": true, "ianaCode": "fa", "languageName": "Persian"}, {"languageCode": "pl", "endonym": "Polski", "isRtl": false, "ianaCode": "pl", "languageName": "Polish"}, {"languageCode": "pt", "endonym": "Portugu\\u00eas de Portugal", "isRtl": false, "ianaCode": "pt", "languageName": "Portuguese"}, {"languageCode": "pt-br", "endonym": "Portugu\\u00eas brasileiro", "isRtl": false, "ianaCode": "pt-BR", "languageName": "Portuguese, Brazilian"}, {"languageCode": "ro", "endonym": "Rom\\u00e2n\\u0103", "isRtl": false, "ianaCode": "ro", "languageName": "Romanian"}, {"languageCode": "ru", "endonym": "\\u0420\\u0443\\u0441\\u0441\\u043a\\u0438\\u0439", "isRtl": false, "ianaCode": "ru", "languageName": "Russian"}, {"languageCode": "sr", "endonym": "\\u0421\\u0440\\u043f\\u0441\\u043a\\u0438, Srpski", "isRtl": false, "ianaCode": "sr", "languageName": "Serbian"}, {"languageCode": "sk", "endonym": "Sloven\\u010dina", "isRtl": false, "ianaCode": "sk", "languageName": "Slovak"}, {"languageCode": "sl", "endonym": "Sloven\\u0161\\u010dina", "isRtl": false, "ianaCode": "sl", "languageName": "Slovenian"}, {"languageCode": "es", "endonym": "Espa\\u00f1ol", "isRtl": false, "ianaCode": "es", "languageName": "Spanish"}, {"languageCode": "sv", "endonym": "Svenska", "isRtl": false, "ianaCode": "sv", "languageName": "Swedish"}, {"languageCode": "tr", "endonym": "T\\u00fcrk\\u00e7e", "isRtl": false, "ianaCode": "tr", "languageName": "Turkish"}, {"languageCode": "uk", "endonym": "\\u0423\\u043a\\u0440\\u0430\\u0457\\u043d\\u0441\\u044c\\u043a\\u0430", "isRtl": false, "ianaCode": "uk", "languageName": "Ukrainian"}, {"languageCode": "ug", "endonym": "\\u0626\\u06c7\\u064a\\u063a\\u06c7\\u0631\\u0686\\u06d5", "isRtl": false, "ianaCode": "ug", "languageName": "Uyghur"}, {"languageCode": "uz", "endonym": "O\'zbek", "isRtl": false, "ianaCode": "uz", "languageName": "Uzbek"}, {"languageCode": "vi", "endonym": "Ti\\u1ebfng Vi\\u1ec7t", "isRtl": false, "ianaCode": "vi", "languageName": "Vietnamese"}], "nativeLanguage": "en", "tags": ["Planets", "astronomy", "exploration", "life", "science", "solar system", "space", "technology"], "speaker": "Carolyn Porco", "isSubtitleRequired": false, "introDuration": 11.82, "duration": 209, "id": 551, "resources": {"h264": [{"bitrate": 320, "file": "https://download.ted.com/talks/CarolynPorco_2009U-320k.mp4?dnt"}], "hls": {"maiTargeting": {"event": "TED2009", "tag": "Planets,astronomy,exploration,life,science,solar system,space,technology", "id": 551, "talk": "carolyn_porco_could_a_saturn_moon_harbor_life", "year": "2009"}, "metadata": "https://hls.ted.com/talks/551.json", "stream": "https://hls.ted.com/talks/551.m3u8", "adUrl": "https://pubads.g.doubleclick.net/gampad/ads?ciu_szs=300x250%2C512x288%2C120x60%2C320x50%2C6x7%2C6x8&correlator=%5Bcorrelator%5D&cust_params=event%3DTED2009%26id%3D551%26tag%3DPlanets%2Castronomy%2Cexploration%2Clife%2Cscience%2Csolar%2Bsystem%2Cspace%2Ctechnology%26talk%3Dcarolyn_porco_could_a_saturn_moon_harbor_life%26year%3D2009&env=vp&gdfp_req=1&impl=s&iu=%2F5641%2Fmobile%2Fios%2Fweb&output=xml_vast2&sz=640x360&unviewed_position_start=1&url=%5Breferrer%5D"}}, "canonical": "https://www.ted.com/talks/carolyn_porco_could_a_saturn_moon_harbor_life"}], "hero_load": "https://pi.tedcdn.com/r/pe.tedcdn.com/images/ted/87925_800x600.jpg?q=50&w=15", "duration": 209, "id": 551, "ratings": [{"count": 499, "id": 22, "name": "Fascinating"}, {"count": 279, "id": 8, "name": "Informative"}, {"count": 68, "id": 25, "name": "OK"}, {"count": 99, "id": 10, "name": "Inspiring"}, {"count": 19, "id": 21, "name": "Unconvincing"}, {"count": 11, "id": 9, "name": "Ingenious"}, {"count": 45, "id": 1, "name": "Beautiful"}, {"count": 44, "id": 23, "name": "Jaw-dropping"}, {"count": 39, "id": 24, "name": "Persuasive"}, {"count": 12, "id": 3, "name": "Courageous"}, {"count": 4, "id": 11, "name": "Longwinded"}, {"count": 6, "id": 26, "name": "Obnoxious"}, {"count": 4, "id": 7, "name": "Funny"}, {"count": 5, "id": 2, "name": "Confusing"}], "speakers": [{"description": "Planetary scientist", "firstname": "Carolyn", "title": "", "lastname": "Porco", "middleinitial": "", "whylisten": "<p class=\\"p1\\">Planetary scientist Carolyn Porco studies and interprets the photos from NASA space missions like the renowned <em>Voyager</em> mission to the outer solar system in the 1980s and the <em>Cassini-Huygens</em> mission to Saturn. She leads a team of scientists from the US and Europe that has been analyzing the <a href=\\"http://ciclops.org/ir_index_main.php%22%20%5Ct%20%22_blank\\"><span class=\\"s1\\">images</span></a> <em>Cassini</em> has sent back since it left Earth in 1997. At Saturn, they have found new phenomena everywhere they&#39;ve turned their cameras &hellip; in the planet&rsquo;s atmosphere, within its rings and on the surfaces of its many moons. And they&#39;ve produced spectacular <strong>images and animations of these marvels in the process.</strong></p><p class=\\"p1\\">Back in the early-1980s, while still working on her doctorate, Porco was drafted onto the <em>Voyager</em> imaging team to assist in crunching the mountains of data coming back from <em>Voyager&rsquo;s</em> fly-by of Saturn. Her work on the planet&#39;s rings and their relation to its moons cemented her connection with Saturn. After <em>Voyager</em> had flown by Neptune and<em> </em>was nearing conclusion, she worked together with Carl Sagan in planning <em>Voyager&rsquo;s&nbsp;</em>celebrated <em>Pale Blue Dot</em> picture of Earth.</p><p class=\\"p1\\">Her ongoing work at the <a href=\\"http://ciclops.org/index.php%22%20%5Ct%20%22_blank\\"><span class=\\"s1\\">Cassini Imaging Central Laboratory for Operations (CICLOPs)</span></a> has two goals: to process, interpret and archive&nbsp;<em>Cassini&rsquo;s</em> images for other scientists, and to make sure the images -- in all <strong>their breathtaking poetry and mystery and sheer Save-Image-As-Desktop awesomeness</strong> -- connect with the general public. She is an advocate for the exploration and understanding of planetary space, and her frequent talks (as well as her <a href=\\"http://ciclops.org/index.php%22%20%5Ct%20%22_blank\\"><span class=\\"s1\\">&quot;Captain&#39;s Log&quot; memos</span></a> on the CICLOPS website) speak to everyone, scientist and nonscientist alike. Her advocacy extends to Hollywood, where she was the character consultant on the 1997 movie &ldquo;<em>Contact</em>,&rdquo; and a consultant on the 2009 Paramount Pictures re-boot of &ldquo;<em>Star Trek</em>.&rdquo; In 2012, she was named one the 25 most influential people in space by <em>TIME</em> magazine.</p><p class=\\"p1\\">Finally, in a twist on the Pale Blue Dot theme, it was she who conceived the idea to invite the people of the world to smile while <em>Cassini&nbsp;</em>imaged the Earth on July 19, 2013 in an event called &ldquo;The Day the Earth Smiled.&rdquo;</p><p class=\\"p1\\">For more information:&nbsp;</p><p class=\\"p1\\"><a href=\\"http://www.ciclops.org/view/3211/Solar-System-Portrait---Earth-as-Pale-Blue-Dot\\" target=\\"_blank\\">Solar System Portrait: Earth as &#39;Pale Blue Dot&#39;</a></p><p class=\\"p1\\"><a href=\\"http://www.bbc.com/news/science-environment-24913141\\" target=\\"_blank\\">BBC: Saturn snapped as Earth smiled</a></p><p class=\\"p1\\"><a href=\\"http://www.theatlantic.com/technology/archive/2013/11/the-carl-sagan-of-our-time-reprises-the-pale-blue-dot-photo-of-earth/281414/\\" target=\\"_blank\\">The Atlantic:&nbsp;The Carl Sagan of Our Time Reprises the &#39;Pale Blue Dot&#39; Photo of Earth</a> </p><p class=\\"p1\\"><a href=\\"http://www.ciclops.org/view.php?id=7699\\" target=\\"_blank\\">The Day the Earth Smiled: Image</a></p><p class=\\"p1\\"><a href=\\"http://blogs.loc.gov/loc/2013/11/portraits-of-the-solar-system-talking-with-carolyn-porco-about-carl-sagan/\\" target=\\"_blank\\">Library of Congress: Portraits of the Solar System: Talking with Carolyn Porco About Carl Sagan</a> &nbsp;</p>", "slug": "carolyn_porco", "whotheyare": "As the leader of the Imaging Team on the Cassini mission to Saturn, Carolyn Porco interprets and shares the pictures coming back from this fascinating planet, its rings and its moons.", "whatotherssay": "", "id": 160, "photo_url": "https://pe.tedcdn.com/images/ted/16793_254x191.jpg"}], "title": "Could a Saturn moon harbor life?", "take_action": null, "comments": 456, "more_resources": null, "hero": "https://pe.tedcdn.com/images/ted/87925_800x600.jpg", "description": "Carolyn Porco shares exciting new findings from the Cassini spacecraft\'s recent sweep of one of Saturn\'s moons, Enceladus. Samples gathered from the moon\'s icy geysers hint that an ocean under its surface could harbor life.", "tags": ["Planets", "astronomy", "exploration", "life", "science", "solar system", "space", "technology"], "downloads": {"languages": [{"languageCode": "sq", "endonym": "Shqip", "isRtl": false, "ianaCode": "sq", "languageName": "Albanian"}, {"languageCode": "ar", "endonym": "\\u0627\\u0644\\u0639\\u0631\\u0628\\u064a\\u0629", "isRtl": true, "ianaCode": "ar", "languageName": "Arabic"}, {"languageCode": "bg", "endonym": "\\u0431\\u044a\\u043b\\u0433\\u0430\\u0440\\u0441\\u043a\\u0438", "isRtl": false, "ianaCode": "bg", "languageName": "Bulgarian"}, {"languageCode": "my", "endonym": "\\u1019\\u103c\\u1014\\u103a\\u1019\\u102c\\u1018\\u102c\\u101e\\u102c", "isRtl": false, "ianaCode": "my", "languageName": "Burmese"}, {"languageCode": "zh-cn", "endonym": "\\u4e2d\\u6587 (\\u7b80\\u4f53)", "isRtl": false, "ianaCode": "zh-Hans", "languageName": "Chinese, Simplified"}, {"languageCode": "zh-tw", "endonym": "\\u4e2d\\u6587 (\\u7e41\\u9ad4)", "isRtl": false, "ianaCode": "zh-Hant", "languageName": "Chinese, Traditional"}, {"languageCode": "hr", "endonym": "Hrvatski", "isRtl": false, "ianaCode": "hr", "languageName": "Croatian"}, {"languageCode": "cs", "endonym": "\\u010ce\\u0161tina", "isRtl": false, "ianaCode": "cs", "languageName": "Czech"}, {"languageCode": "da", "endonym": "Dansk", "isRtl": false, "ianaCode": "da", "languageName": "Danish"}, {"languageCode": "nl", "endonym": "Nederlands", "isRtl": false, "ianaCode": "nl", "languageName": "Dutch"}, {"languageCode": "en", "endonym": "English", "isRtl": false, "ianaCode": "en", "languageName": "English"}, {"languageCode": "eo", "endonym": "Esperanto", "isRtl": false, "ianaCode": "eo", "languageName": "Esperanto"}, {"languageCode": "fr", "endonym": "Fran\\u00e7ais", "isRtl": false, "ianaCode": "fr", "languageName": "French"}, {"languageCode": "de", "endonym": "Deutsch", "isRtl": false, "ianaCode": "de", "languageName": "German"}, {"languageCode": "el", "endonym": "\\u0395\\u03bb\\u03bb\\u03b7\\u03bd\\u03b9\\u03ba\\u03ac", "isRtl": false, "ianaCode": "el", "languageName": "Greek"}, {"languageCode": "he", "endonym": "\\u05e2\\u05d1\\u05e8\\u05d9\\u05ea", "isRtl": true, "ianaCode": "he", "languageName": "Hebrew"}, {"languageCode": "hi", "endonym": "\\u0939\\u093f\\u0928\\u094d\\u0926\\u0940", "isRtl": false, "ianaCode": "hi", "languageName": "Hindi"}, {"languageCode": "hu", "endonym": "Magyar", "isRtl": false, "ianaCode": "hu", "languageName": "Hungarian"}, {"languageCode": "id", "endonym": "Bahasa Indonesia", "isRtl": false, "ianaCode": "id", "languageName": "Indonesian"}, {"languageCode": "it", "endonym": "Italiano", "isRtl": false, "ianaCode": "it", "languageName": "Italian"}, {"languageCode": "ja", "endonym": "\\u65e5\\u672c\\u8a9e", "isRtl": false, "ianaCode": "ja", "languageName": "Japanese"}, {"languageCode": "ko", "endonym": "\\ud55c\\uad6d\\uc5b4", "isRtl": false, "ianaCode": "ko", "languageName": "Korean"}, {"languageCode": "lv", "endonym": "Latvie\\u0161u", "isRtl": false, "ianaCode": "lv", "languageName": "Latvian"}, {"languageCode": "nb", "endonym": "Norsk bokm\\u00e5l", "isRtl": false, "ianaCode": "nb", "languageName": "Norwegian Bokmal"}, {"languageCode": "fa", "endonym": "\\u0641\\u0627\\u0631\\u0633\\u0649", "isRtl": true, "ianaCode": "fa", "languageName": "Persian"}, {"languageCode": "pl", "endonym": "Polski", "isRtl": false, "ianaCode": "pl", "languageName": "Polish"}, {"languageCode": "pt", "endonym": "Portugu\\u00eas de Portugal", "isRtl": false, "ianaCode": "pt", "languageName": "Portuguese"}, {"languageCode": "pt-br", "endonym": "Portugu\\u00eas brasileiro", "isRtl": false, "ianaCode": "pt-BR", "languageName": "Portuguese, Brazilian"}, {"languageCode": "ro", "endonym": "Rom\\u00e2n\\u0103", "isRtl": false, "ianaCode": "ro", "languageName": "Romanian"}, {"languageCode": "ru", "endonym": "\\u0420\\u0443\\u0441\\u0441\\u043a\\u0438\\u0439", "isRtl": false, "ianaCode": "ru", "languageName": "Russian"}, {"languageCode": "sr", "endonym": "\\u0421\\u0440\\u043f\\u0441\\u043a\\u0438, Srpski", "isRtl": false, "ianaCode": "sr", "languageName": "Serbian"}, {"languageCode": "sk", "endonym": "Sloven\\u010dina", "isRtl": false, "ianaCode": "sk", "languageName": "Slovak"}, {"languageCode": "sl", "endonym": "Sloven\\u0161\\u010dina", "isRtl": false, "ianaCode": "sl", "languageName": "Slovenian"}, {"languageCode": "es", "endonym": "Espa\\u00f1ol", "isRtl": false, "ianaCode": "es", "languageName": "Spanish"}, {"languageCode": "sv", "endonym": "Svenska", "isRtl": false, "ianaCode": "sv", "languageName": "Swedish"}, {"languageCode": "tr", "endonym": "T\\u00fcrk\\u00e7e", "isRtl": false, "ianaCode": "tr", "languageName": "Turkish"}, {"languageCode": "uk", "endonym": "\\u0423\\u043a\\u0440\\u0430\\u0457\\u043d\\u0441\\u044c\\u043a\\u0430", "isRtl": false, "ianaCode": "uk", "languageName": "Ukrainian"}, {"languageCode": "ug", "endonym": "\\u0626\\u06c7\\u064a\\u063a\\u06c7\\u0631\\u0686\\u06d5", "isRtl": false, "ianaCode": "ug", "languageName": "Uyghur"}, {"languageCode": "uz", "endonym": "O\'zbek", "isRtl": false, "ianaCode": "uz", "languageName": "Uzbek"}, {"languageCode": "vi", "endonym": "Ti\\u1ebfng Vi\\u1ec7t", "isRtl": false, "ianaCode": "vi", "languageName": "Vietnamese"}], "subtitledDownloads": {"el": {"high": "https://download.ted.com/talks/CarolynPorco_2009U-480p-el.mp4", "name": "Greek", "low": "https://download.ted.com/talks/CarolynPorco_2009U-low-el.mp4"}, "eo": {"high": "https://download.ted.com/talks/CarolynPorco_2009U-480p-eo.mp4", "name": "Esperanto", "low": "https://download.ted.com/talks/CarolynPorco_2009U-low-eo.mp4"}, "en": {"high": "https://download.ted.com/talks/CarolynPorco_2009U-480p-en.mp4", "name": "English", "low": "https://download.ted.com/talks/CarolynPorco_2009U-low-en.mp4"}, "vi": {"high": "https://download.ted.com/talks/CarolynPorco_2009U-480p-vi.mp4", "name": "Vietnamese", "low": "https://download.ted.com/talks/CarolynPorco_2009U-low-vi.mp4"}, "it": {"high": "https://download.ted.com/talks/CarolynPorco_2009U-480p-it.mp4", "name": "Italian", "low": "https://download.ted.com/talks/CarolynPorco_2009U-low-it.mp4"}, "ar": {"high": "https://download.ted.com/talks/CarolynPorco_2009U-480p-ar.mp4", "name": "Arabic", "low": "https://download.ted.com/talks/CarolynPorco_2009U-low-ar.mp4"}, "pt-br": {"high": "https://download.ted.com/talks/CarolynPorco_2009U-480p-pt-br.mp4", "name": "Portuguese, Brazilian", "low": "https://download.ted.com/talks/CarolynPorco_2009U-low-pt-br.mp4"}, "cs": {"high": "https://download.ted.com/talks/CarolynPorco_2009U-480p-cs.mp4", "name": "Czech", "low": "https://download.ted.com/talks/CarolynPorco_2009U-low-cs.mp4"}, "id": {"high": "https://download.ted.com/talks/CarolynPorco_2009U-480p-id.mp4", "name": "Indonesian", "low": "https://download.ted.com/talks/CarolynPorco_2009U-low-id.mp4"}, "es": {"high": "https://download.ted.com/talks/CarolynPorco_2009U-480p-es.mp4", "name": "Spanish", "low": "https://download.ted.com/talks/CarolynPorco_2009U-low-es.mp4"}, "ru": {"high": "https://download.ted.com/talks/CarolynPorco_2009U-480p-ru.mp4", "name": "Russian", "low": "https://download.ted.com/talks/CarolynPorco_2009U-low-ru.mp4"}, "nl": {"high": "https://download.ted.com/talks/CarolynPorco_2009U-480p-nl.mp4", "name": "Dutch", "low": "https://download.ted.com/talks/CarolynPorco_2009U-low-nl.mp4"}, "pt": {"high": "https://download.ted.com/talks/CarolynPorco_2009U-480p-pt.mp4", "name": "Portuguese", "low": "https://download.ted.com/talks/CarolynPorco_2009U-low-pt.mp4"}, "zh-tw": {"high": "https://download.ted.com/talks/CarolynPorco_2009U-480p-zh-tw.mp4", "name": "Chinese, Traditional", "low": "https://download.ted.com/talks/CarolynPorco_2009U-low-zh-tw.mp4"}, "nb": {"high": "https://download.ted.com/talks/CarolynPorco_2009U-480p-nb.mp4", "name": "Norwegian Bokmal", "low": "https://download.ted.com/talks/CarolynPorco_2009U-low-nb.mp4"}, "tr": {"high": "https://download.ted.com/talks/CarolynPorco_2009U-480p-tr.mp4", "name": "Turkish", "low": "https://download.ted.com/talks/CarolynPorco_2009U-low-tr.mp4"}, "lv": {"high": "https://download.ted.com/talks/CarolynPorco_2009U-480p-lv.mp4", "name": "Latvian", "low": "https://download.ted.com/talks/CarolynPorco_2009U-low-lv.mp4"}, "zh-cn": {"high": "https://download.ted.com/talks/CarolynPorco_2009U-480p-zh-cn.mp4", "name": "Chinese, Simplified", "low": "https://download.ted.com/talks/CarolynPorco_2009U-low-zh-cn.mp4"}, "ro": {"high": "https://download.ted.com/talks/CarolynPorco_2009U-480p-ro.mp4", "name": "Romanian", "low": "https://download.ted.com/talks/CarolynPorco_2009U-low-ro.mp4"}, "pl": {"high": "https://download.ted.com/talks/CarolynPorco_2009U-480p-pl.mp4", "name": "Polish", "low": "https://download.ted.com/talks/CarolynPorco_2009U-low-pl.mp4"}, "fr": {"high": "https://download.ted.com/talks/CarolynPorco_2009U-480p-fr.mp4", "name": "French", "low": "https://download.ted.com/talks/CarolynPorco_2009U-low-fr.mp4"}, "bg": {"high": "https://download.ted.com/talks/CarolynPorco_2009U-480p-bg.mp4", "name": "Bulgarian", "low": "https://download.ted.com/talks/CarolynPorco_2009U-low-bg.mp4"}, "hr": {"high": "https://download.ted.com/talks/CarolynPorco_2009U-480p-hr.mp4", "name": "Croatian", "low": "https://download.ted.com/talks/CarolynPorco_2009U-low-hr.mp4"}, "de": {"high": "https://download.ted.com/talks/CarolynPorco_2009U-480p-de.mp4", "name": "German", "low": "https://download.ted.com/talks/CarolynPorco_2009U-low-de.mp4"}, "da": {"high": "https://download.ted.com/talks/CarolynPorco_2009U-480p-da.mp4", "name": "Danish", "low": "https://download.ted.com/talks/CarolynPorco_2009U-low-da.mp4"}, "fa": {"high": "https://download.ted.com/talks/CarolynPorco_2009U-480p-fa.mp4", "name": "Persian", "low": "https://download.ted.com/talks/CarolynPorco_2009U-low-fa.mp4"}, "hi": {"high": "https://download.ted.com/talks/CarolynPorco_2009U-480p-hi.mp4", "name": "Hindi", "low": "https://download.ted.com/talks/CarolynPorco_2009U-low-hi.mp4"}, "hu": {"high": "https://download.ted.com/talks/CarolynPorco_2009U-480p-hu.mp4", "name": "Hungarian", "low": "https://download.ted.com/talks/CarolynPorco_2009U-low-hu.mp4"}, "ja": {"high": "https://download.ted.com/talks/CarolynPorco_2009U-480p-ja.mp4", "name": "Japanese", "low": "https://download.ted.com/talks/CarolynPorco_2009U-low-ja.mp4"}, "he": {"high": "https://download.ted.com/talks/CarolynPorco_2009U-480p-he.mp4", "name": "Hebrew", "low": "https://download.ted.com/talks/CarolynPorco_2009U-low-he.mp4"}, "uz": {"high": "https://download.ted.com/talks/CarolynPorco_2009U-480p-uz.mp4", "name": "Uzbek", "low": "https://download.ted.com/talks/CarolynPorco_2009U-low-uz.mp4"}, "sr": {"high": "https://download.ted.com/talks/CarolynPorco_2009U-480p-sr.mp4", "name": "Serbian", "low": "https://download.ted.com/talks/CarolynPorco_2009U-low-sr.mp4"}, "sq": {"high": "https://download.ted.com/talks/CarolynPorco_2009U-480p-sq.mp4", "name": "Albanian", "low": "https://download.ted.com/talks/CarolynPorco_2009U-low-sq.mp4"}, "ko": {"high": "https://download.ted.com/talks/CarolynPorco_2009U-480p-ko.mp4", "name": "Korean", "low": "https://download.ted.com/talks/CarolynPorco_2009U-low-ko.mp4"}, "sv": {"high": "https://download.ted.com/talks/CarolynPorco_2009U-480p-sv.mp4", "name": "Swedish", "low": "https://download.ted.com/talks/CarolynPorco_2009U-low-sv.mp4"}, "sk": {"high": "https://download.ted.com/talks/CarolynPorco_2009U-480p-sk.mp4", "name": "Slovak", "low": "https://download.ted.com/talks/CarolynPorco_2009U-low-sk.mp4"}, "uk": {"high": "https://download.ted.com/talks/CarolynPorco_2009U-480p-uk.mp4", "name": "Ukrainian", "low": "https://download.ted.com/talks/CarolynPorco_2009U-low-uk.mp4"}, "sl": {"high": "https://download.ted.com/talks/CarolynPorco_2009U-480p-sl.mp4", "name": "Slovenian", "low": "https://download.ted.com/talks/CarolynPorco_2009U-low-sl.mp4"}, "my": {"high": "https://download.ted.com/talks/CarolynPorco_2009U-480p-my.mp4", "name": "Burmese", "low": "https://download.ted.com/talks/CarolynPorco_2009U-low-my.mp4"}}, "nativeDownloads": {"high": "https://download.ted.com/talks/CarolynPorco_2009U-480p.mp4?apikey=489b859150fc58263f17110eeb44ed5fba4a3b22", "medium": "https://download.ted.com/talks/CarolynPorco_2009U.mp4?apikey=489b859150fc58263f17110eeb44ed5fba4a3b22", "low": "https://download.ted.com/talks/CarolynPorco_2009U-light.mp4?apikey=489b859150fc58263f17110eeb44ed5fba4a3b22"}, "id": 551, "audioDownload": "https://download.ted.com/talks/CarolynPorco_2009U.mp3?apikey=489b859150fc58263f17110eeb44ed5fba4a3b22"}, "related_talks": [{"viewed_count": 899689, "hero": "https://pe.tedcdn.com/images/ted/496_480x360.jpg", "title": "Let\'s look for life in the outer solar system", "id": 306, "speaker": "Freeman Dyson", "duration": 1151, "slug": "freeman_dyson_says_let_s_look_for_life_in_the_outer_solar_system"}, {"viewed_count": 2638657, "hero": "https://pe.tedcdn.com/images/ted/16736_480x360.jpg", "title": "This is Saturn", "id": 178, "speaker": "Carolyn Porco", "duration": 1029, "slug": "carolyn_porco_flies_us_to_saturn"}, {"viewed_count": 1813019, "hero": "https://pe.tedcdn.com/images/ted/cb75ec0e37f0a14dc0da2929ff640b0c5c4099ec_2880x1620.jpg", "title": "I\'m going to the moon. Who\'s with me?", "id": 141, "speaker": "Bill Stone", "duration": 1063, "slug": "bill_stone_explores_the_earth_and_space"}, {"viewed_count": 1483209, "hero": "https://pe.tedcdn.com/images/ted/b6e723006c6adffa0e722954a65459f4ba05bc5d_2880x1620.jpg", "title": "3 moons and a planet that could have alien life", "id": 2550, "speaker": "James Green", "duration": 639, "slug": "james_green_3_moons_and_a_planet_that_could_have_alien_life"}, {"viewed_count": 726190, "hero": "https://pe.tedcdn.com/images/ted/767899eeb4dfd803b24d1f3c8f837702abae9208_800x600.jpg", "title": "Tour the solar system from home", "id": 1488, "speaker": "Jon Nguyen", "duration": 473, "slug": "jon_nguyen_tour_the_solar_system_from_home"}, {"viewed_count": 1624394, "hero": "https://pe.tedcdn.com/images/ted/175142_800x600.jpg", "title": "Why we need the explorers", "id": 876, "speaker": "Brian Cox", "duration": 989, "slug": "brian_cox_why_we_need_the_explorers"}], "recorded_at": "2009-02-06T00:00:00.000+00:00", "slug": "carolyn_porco_could_a_saturn_moon_harbor_life", "speaker_name": "Carolyn Porco", "viewed_count": 892398, "event_badge": null, "event_blurb": "This talk was presented at an official TED conference, and was featured by our editors on the home page.", "recommendations": null, "corrections": null}], "event": "TED2009", "name": "Carolyn Porco: Could a Saturn moon harbor life?"}'
p120
sS'keywords'
p121
(lp122
VPlanets
p123
aVastronomy
p124
aVexploration
p125
aVlife
p126
aVscience
p127
aVsolar system
p128
aVspace
p129
aVtechnology
p130
asS'datecrawled'
p131
g115
(S'\x07\xe1\n\x17\x011\x1b\x05\\s'
tRp132
sS'id'
p133
I551
ss.