(dp1
S'talk_transcript'
p2
(lp3
(lp4
VThis is the exact moment
p5
aVthat I started creating something called Tinkering School.
p6
aa(lp7
VTinkering School is a place where kids can pick up sticks
p8
aVand hammers and other dangerous objects,
p9
aVand be trusted.
p10
aVTrusted not to hurt themselves,
p11
aVand trusted not to hurt others.
p12
aVTinkering School doesn't follow a set curriculum,
p13
aVand there are no tests.
p14
aVWe're not trying to teach anybody any specific thing.
p15
aa(lp16
VWhen the kids arrive
p17
aVthey're confronted with lots of stuff:
p18
aVwood and nails and rope and wheels,
p19
aVand lots of tools, real tools.
p20
aVIt's a six-day immersive experience for the kids.
p21
aVAnd within that context, we can offer the kids time \u2014
p22
aVsomething that seems in short supply
p23
aVin their over-scheduled lives.
p24
aVOur goal is to ensure that they leave
p25
aVwith a better sense of how to make things
p26
aVthan when they arrived,
p27
aVand the deep internal realization
p28
aVthat you can figure things out by fooling around.
p29
aa(lp30
VNothing ever turns out as planned ... ever.
p31
aV(Laughter)
p32
aVAnd the kids soon learn
p33
aVthat all projects go awry \u2014
p34
aV(Laughter)
p35
aVand become at ease with the idea that every step
p36
aVin a project is a step closer
p37
aVto sweet success,
p38
aVor gleeful calamity.
p39
aVWe start from doodles and sketches.
p40
aVAnd sometimes we make real plans.
p41
aVAnd sometimes we just start building.
p42
aVBuilding is at the heart of the experience:
p43
aVhands on, deeply immersed
p44
aVand fully committed to the problem at hand.
p45
aVRobin and I, acting as collaborators,
p46
aVkeep the landscape of the projects
p47
aVtilted towards completion.
p48
aVSuccess is in the doing,
p49
aVand failures are celebrated and analyzed.
p50
aVProblems become puzzles
p51
aVand obstacles disappear.
p52
aa(lp53
VWhen faced with particularly difficult
p54
aVsetbacks or complexities,
p55
aVa really interesting behavior emerges: decoration.
p56
aV(Laughter)
p57
aVDecoration of the unfinished project
p58
aVis a kind of conceptual incubation.
p59
aVFrom these interludes come deep insights
p60
aVand amazing new approaches to solving the problems
p61
aVthat had them frustrated just moments before.
p62
aa(lp63
VAll materials are available for use.
p64
aVEven those mundane, hateful, plastic grocery bags
p65
aVcan become a bridge
p66
aVstronger than anyone imagined.
p67
aVAnd the things that they build
p68
aVamaze even themselves.
p69
aa(lp70
VVideo: Three, two, one, go!
p71
aa(lp72
VGever Tulley: A rollercoaster built by seven-year-olds.
p73
aa(lp74
VVideo: Yay!
p75
aV(Applause)
p76
aa(lp77
VGT: Thank you. It's been a great pleasure.
p78
aV(Applause)
p79
aasS'transcript_micsec'
p80
(lp81
I15000
aI24000
aI49000
aI93000
aI161000
aI190000
aI213000
aI224000
aI228000
aI233000
asS'talk_meta'
p82
(dp83
S'ratings'
p84
(dp85
S'beautiful'
p86
I164
sS'ingenious'
p87
I215
sS'inspiring'
p88
I545
sS'ok'
p89
I46
sS'fascinating'
p90
I203
sS'funny'
p91
I82
sS'total_count'
p92
I1593
sS'persuasive'
p93
I104
sS'longwinded'
p94
I1
sS'informative'
p95
I75
sS'jaw-dropping'
p96
I58
sS'obnoxious'
p97
I1
sS'confusing'
p98
I3
sS'courageous'
p99
I89
sS'unconvincing'
p100
I7
ssS'author'
p101
VGever_Tulley;
p102
sS'url'
p103
S'https://www.ted.com/talks/gever_tulley_s_tinkering_school_in_action'
p104
sS'vidlen'
p105
I245
sS'totalviews'
p106
I1154385
sS'title'
p107
VLife lessons through tinkering
p108
sS'downloadlink'
p109
Vhttps://download.ted.com/talks/GeverTulley_2009.mp4?apikey=489b859150fc58263f17110eeb44ed5fba4a3b22
p110
sS'datepublished'
p111
cdatetime
datetime
p112
(S'\x07\xd9\x06\x1d\x15\x00\x00\x00\x00\x00'
tRp113
sS'datefilmed'
p114
g112
(S'\x07\xd9\x06\x1d\x15\x00\x00\x00\x00\x00'
tRp115
sS'alldata_JSON'
p116
S'{"viewed_count": 1154385, "speakers": [{"description": "Tinkerer", "firstname": "Gever", "title": "", "lastname": "Tulley", "middleinitial": "", "whylisten": "<p>Gever Tulley writes the best <a href=\\"http://twitter.com/gever\\" target=\\"_blank\\">Twitters</a>: <em>Just landed my paraglider in an empty field behind Santa 8arbara. ... Making amazing tshirts with a laser cutter at the maker faire in austin. ... Washing fruit, putting sheets on bunkbeds, and grinding up aluminum foil in a cheap blender ... Updating the school blog, trying to figure out how many cubic feet of air are in a 5 gallon cylinder at 200 PSI. ... Trying to figure out if the tinker kids are going to be able to get molten iron from magnetite sand ...</em></p><p>A software engineer, Gever Tulley is the co-founder of the Tinkering School, a weeklong camp where lucky kids get to play with their very own power tools. He&#39;s interested in helping kids learn how to build, solve problems, use new materials and hack old ones for new purposes. He&#39;s also a certified paragliding instructor. </p>", "slug": "gever_tulley", "whotheyare": "The founder of the Tinkering School, Gever Tulley likes to build things with kids.", "whatotherssay": "", "id": 180, "photo_url": "https://pe.tedcdn.com/images/ted/582a8f095b24be2578562967d0fb4fd9ac33b20f_254x191.jpg"}], "current_talk": 588, "description": "Gever Tulley uses engaging photos and footage to demonstrate the valuable lessons kids learn at his Tinkering School. When given tools, materials and guidance, these young imaginations run wild and creative problem-solving takes over to build unique boats, bridges and even a roller coaster!", "language": "en", "url": "https://www.ted.com/talks/gever_tulley_s_tinkering_school_in_action", "media": {"internal": {"podcast-high-en": {"uri": "https://download.ted.com/talks/GeverTulley_2009-480p-en.mp4?apikey=489b859150fc58263f17110eeb44ed5fba4a3b22", "mime_type": "video/mp4", "filesize_bytes": 28953055}, "podcast-low-en": {"uri": "https://download.ted.com/talks/GeverTulley_2009-low-en.mp4?apikey=489b859150fc58263f17110eeb44ed5fba4a3b22", "mime_type": "video/mp4", "filesize_bytes": 5788504}, "podcast-high": {"uri": "https://download.ted.com/talks/GeverTulley_2009-480p.mp4?apikey=489b859150fc58263f17110eeb44ed5fba4a3b22", "mime_type": "video/mp4", "filesize_bytes": 28951198}, "180k": {"uri": "https://download.ted.com/talks/GeverTulley_2009-180k.mp4?apikey=489b859150fc58263f17110eeb44ed5fba4a3b22", "mime_type": "video/mp4", "filesize_bytes": 5537324}, "64k": {"uri": "https://download.ted.com/talks/GeverTulley_2009-64k.mp4?apikey=489b859150fc58263f17110eeb44ed5fba4a3b22", "mime_type": "video/mp4", "filesize_bytes": 2022362}, "1500k": {"uri": "https://download.ted.com/talks/GeverTulley_2009-1500k.mp4?apikey=489b859150fc58263f17110eeb44ed5fba4a3b22", "mime_type": "video/mp4", "filesize_bytes": 44178414}, "450k": {"uri": "https://download.ted.com/talks/GeverTulley_2009-450k.mp4?apikey=489b859150fc58263f17110eeb44ed5fba4a3b22", "mime_type": "video/mp4", "filesize_bytes": 13997880}, "podcast-regular": {"uri": "https://download.ted.com/talks/GeverTulley_2009.mp4?apikey=489b859150fc58263f17110eeb44ed5fba4a3b22", "mime_type": "video/mp4", "filesize_bytes": 14112913}, "950k": {"uri": "https://download.ted.com/talks/GeverTulley_2009-950k.mp4?apikey=489b859150fc58263f17110eeb44ed5fba4a3b22", "mime_type": "video/mp4", "filesize_bytes": 28941173}, "audio-podcast": {"uri": "https://download.ted.com/talks/GeverTulley_2009.mp3?apikey=489b859150fc58263f17110eeb44ed5fba4a3b22", "mime_type": "audio/mp3", "filesize_bytes": 2693792}, "podcast-light": {"uri": "https://download.ted.com/talks/GeverTulley_2009-light.mp4?apikey=489b859150fc58263f17110eeb44ed5fba4a3b22", "mime_type": "video/mp4", "filesize_bytes": 2155750}, "320k": {"uri": "https://download.ted.com/talks/GeverTulley_2009-320k.mp4?apikey=489b859150fc58263f17110eeb44ed5fba4a3b22", "mime_type": "video/mp4", "filesize_bytes": 9853363}, "600k": {"uri": "https://download.ted.com/talks/GeverTulley_2009-600k.mp4?apikey=489b859150fc58263f17110eeb44ed5fba4a3b22", "mime_type": "video/mp4", "filesize_bytes": 18934915}}}, "comments": {"count": 172, "id": 484, "talk_id": 588}, "slug": "gever_tulley_s_tinkering_school_in_action", "threadId": 484, "talks": [{"event": "TED2009", "player_talks": [{"event": "TED2009", "slug": "gever_tulley_s_tinkering_school_in_action", "filmed": 1233878400, "targeting": {"event": "TED2009", "tag": "children,creativity,design,education,innovation,invention", "id": 588, "talk": "gever_tulley_s_tinkering_school_in_action", "year": "2009"}, "adDuration": "4.00", "external": null, "title": "Life lessons through tinkering", "postAdDuration": "0.83", "published": 1246323600, "thumb": "https://pi.tedcdn.com/r/pe.tedcdn.com/images/ted/99609_800x600.jpg?quality=89&w=600", "name": "Gever Tulley: Life lessons through tinkering", "languages": [{"languageCode": "af", "endonym": "Afrikaans", "isRtl": false, "ianaCode": "af", "languageName": "Afrikaans"}, {"languageCode": "sq", "endonym": "Shqip", "isRtl": false, "ianaCode": "sq", "languageName": "Albanian"}, {"languageCode": "ar", "endonym": "\\u0627\\u0644\\u0639\\u0631\\u0628\\u064a\\u0629", "isRtl": true, "ianaCode": "ar", "languageName": "Arabic"}, {"languageCode": "bg", "endonym": "\\u0431\\u044a\\u043b\\u0433\\u0430\\u0440\\u0441\\u043a\\u0438", "isRtl": false, "ianaCode": "bg", "languageName": "Bulgarian"}, {"languageCode": "my", "endonym": "\\u1019\\u103c\\u1014\\u103a\\u1019\\u102c\\u1018\\u102c\\u101e\\u102c", "isRtl": false, "ianaCode": "my", "languageName": "Burmese"}, {"languageCode": "zh-cn", "endonym": "\\u4e2d\\u6587 (\\u7b80\\u4f53)", "isRtl": false, "ianaCode": "zh-Hans", "languageName": "Chinese, Simplified"}, {"languageCode": "zh-tw", "endonym": "\\u4e2d\\u6587 (\\u7e41\\u9ad4)", "isRtl": false, "ianaCode": "zh-Hant", "languageName": "Chinese, Traditional"}, {"languageCode": "hr", "endonym": "Hrvatski", "isRtl": false, "ianaCode": "hr", "languageName": "Croatian"}, {"languageCode": "cs", "endonym": "\\u010ce\\u0161tina", "isRtl": false, "ianaCode": "cs", "languageName": "Czech"}, {"languageCode": "da", "endonym": "Dansk", "isRtl": false, "ianaCode": "da", "languageName": "Danish"}, {"languageCode": "nl", "endonym": "Nederlands", "isRtl": false, "ianaCode": "nl", "languageName": "Dutch"}, {"languageCode": "en", "endonym": "English", "isRtl": false, "ianaCode": "en", "languageName": "English"}, {"languageCode": "fil", "endonym": "Filipino", "isRtl": false, "ianaCode": "fil", "languageName": "Filipino"}, {"languageCode": "fr", "endonym": "Fran\\u00e7ais", "isRtl": false, "ianaCode": "fr", "languageName": "French"}, {"languageCode": "fr-ca", "endonym": "Fran\\u00e7ais canadien", "isRtl": false, "ianaCode": "fr-CA", "languageName": "French (Canada)"}, {"languageCode": "de", "endonym": "Deutsch", "isRtl": false, "ianaCode": "de", "languageName": "German"}, {"languageCode": "el", "endonym": "\\u0395\\u03bb\\u03bb\\u03b7\\u03bd\\u03b9\\u03ba\\u03ac", "isRtl": false, "ianaCode": "el", "languageName": "Greek"}, {"languageCode": "he", "endonym": "\\u05e2\\u05d1\\u05e8\\u05d9\\u05ea", "isRtl": true, "ianaCode": "he", "languageName": "Hebrew"}, {"languageCode": "hi", "endonym": "\\u0939\\u093f\\u0928\\u094d\\u0926\\u0940", "isRtl": false, "ianaCode": "hi", "languageName": "Hindi"}, {"languageCode": "hu", "endonym": "Magyar", "isRtl": false, "ianaCode": "hu", "languageName": "Hungarian"}, {"languageCode": "id", "endonym": "Bahasa Indonesia", "isRtl": false, "ianaCode": "id", "languageName": "Indonesian"}, {"languageCode": "it", "endonym": "Italiano", "isRtl": false, "ianaCode": "it", "languageName": "Italian"}, {"languageCode": "ja", "endonym": "\\u65e5\\u672c\\u8a9e", "isRtl": false, "ianaCode": "ja", "languageName": "Japanese"}, {"languageCode": "ko", "endonym": "\\ud55c\\uad6d\\uc5b4", "isRtl": false, "ianaCode": "ko", "languageName": "Korean"}, {"languageCode": "ku", "endonym": "\\u06a9\\u0648\\u0631\\u062f\\u06cc", "isRtl": true, "ianaCode": "ku", "languageName": "Kurdish"}, {"languageCode": "mr", "endonym": "\\u092e\\u0930\\u093e\\u0920\\u0940", "isRtl": false, "ianaCode": "mr", "languageName": "Marathi"}, {"languageCode": "nb", "endonym": "Norsk bokm\\u00e5l", "isRtl": false, "ianaCode": "nb", "languageName": "Norwegian Bokmal"}, {"languageCode": "fa", "endonym": "\\u0641\\u0627\\u0631\\u0633\\u0649", "isRtl": true, "ianaCode": "fa", "languageName": "Persian"}, {"languageCode": "pl", "endonym": "Polski", "isRtl": false, "ianaCode": "pl", "languageName": "Polish"}, {"languageCode": "pt", "endonym": "Portugu\\u00eas de Portugal", "isRtl": false, "ianaCode": "pt", "languageName": "Portuguese"}, {"languageCode": "pt-br", "endonym": "Portugu\\u00eas brasileiro", "isRtl": false, "ianaCode": "pt-BR", "languageName": "Portuguese, Brazilian"}, {"languageCode": "ro", "endonym": "Rom\\u00e2n\\u0103", "isRtl": false, "ianaCode": "ro", "languageName": "Romanian"}, {"languageCode": "ru", "endonym": "\\u0420\\u0443\\u0441\\u0441\\u043a\\u0438\\u0439", "isRtl": false, "ianaCode": "ru", "languageName": "Russian"}, {"languageCode": "sr", "endonym": "\\u0421\\u0440\\u043f\\u0441\\u043a\\u0438, Srpski", "isRtl": false, "ianaCode": "sr", "languageName": "Serbian"}, {"languageCode": "sk", "endonym": "Sloven\\u010dina", "isRtl": false, "ianaCode": "sk", "languageName": "Slovak"}, {"languageCode": "es", "endonym": "Espa\\u00f1ol", "isRtl": false, "ianaCode": "es", "languageName": "Spanish"}, {"languageCode": "th", "endonym": "\\u0e20\\u0e32\\u0e29\\u0e32\\u0e44\\u0e17\\u0e22", "isRtl": false, "ianaCode": "th", "languageName": "Thai"}, {"languageCode": "tr", "endonym": "T\\u00fcrk\\u00e7e", "isRtl": false, "ianaCode": "tr", "languageName": "Turkish"}, {"languageCode": "uk", "endonym": "\\u0423\\u043a\\u0440\\u0430\\u0457\\u043d\\u0441\\u044c\\u043a\\u0430", "isRtl": false, "ianaCode": "uk", "languageName": "Ukrainian"}, {"languageCode": "uz", "endonym": "O\'zbek", "isRtl": false, "ianaCode": "uz", "languageName": "Uzbek"}, {"languageCode": "vi", "endonym": "Ti\\u1ebfng Vi\\u1ec7t", "isRtl": false, "ianaCode": "vi", "languageName": "Vietnamese"}], "nativeLanguage": "en", "tags": ["children", "creativity", "design", "education", "innovation", "invention"], "speaker": "Gever Tulley", "isSubtitleRequired": false, "introDuration": 15.33, "duration": 245, "id": 588, "resources": {"h264": [{"bitrate": 320, "file": "https://download.ted.com/talks/GeverTulley_2009-320k.mp4?dnt"}], "hls": {"maiTargeting": {"event": "TED2009", "tag": "children,creativity,design,education,innovation,invention", "id": 588, "talk": "gever_tulley_s_tinkering_school_in_action", "year": "2009"}, "metadata": "https://hls.ted.com/talks/588.json", "stream": "https://hls.ted.com/talks/588.m3u8", "adUrl": "https://pubads.g.doubleclick.net/gampad/ads?ciu_szs=300x250%2C512x288%2C120x60%2C320x50%2C6x7%2C6x8&correlator=%5Bcorrelator%5D&cust_params=event%3DTED2009%26id%3D588%26tag%3Dchildren%2Ccreativity%2Cdesign%2Ceducation%2Cinnovation%2Cinvention%26talk%3Dgever_tulley_s_tinkering_school_in_action%26year%3D2009&env=vp&gdfp_req=1&impl=s&iu=%2F5641%2Fmobile%2Fios%2Fweb&output=xml_vast2&sz=640x360&unviewed_position_start=1&url=%5Breferrer%5D"}}, "canonical": "https://www.ted.com/talks/gever_tulley_s_tinkering_school_in_action"}], "hero_load": "https://pi.tedcdn.com/r/pe.tedcdn.com/images/ted/99609_800x600.jpg?q=50&w=15", "duration": 245, "id": 588, "ratings": [{"count": 58, "id": 23, "name": "Jaw-dropping"}, {"count": 164, "id": 1, "name": "Beautiful"}, {"count": 215, "id": 9, "name": "Ingenious"}, {"count": 545, "id": 10, "name": "Inspiring"}, {"count": 203, "id": 22, "name": "Fascinating"}, {"count": 82, "id": 7, "name": "Funny"}, {"count": 104, "id": 24, "name": "Persuasive"}, {"count": 89, "id": 3, "name": "Courageous"}, {"count": 46, "id": 25, "name": "OK"}, {"count": 75, "id": 8, "name": "Informative"}, {"count": 7, "id": 21, "name": "Unconvincing"}, {"count": 3, "id": 2, "name": "Confusing"}, {"count": 1, "id": 26, "name": "Obnoxious"}, {"count": 1, "id": 11, "name": "Longwinded"}], "speakers": [{"description": "Tinkerer", "firstname": "Gever", "title": "", "lastname": "Tulley", "middleinitial": "", "whylisten": "<p>Gever Tulley writes the best <a href=\\"http://twitter.com/gever\\" target=\\"_blank\\">Twitters</a>: <em>Just landed my paraglider in an empty field behind Santa 8arbara. ... Making amazing tshirts with a laser cutter at the maker faire in austin. ... Washing fruit, putting sheets on bunkbeds, and grinding up aluminum foil in a cheap blender ... Updating the school blog, trying to figure out how many cubic feet of air are in a 5 gallon cylinder at 200 PSI. ... Trying to figure out if the tinker kids are going to be able to get molten iron from magnetite sand ...</em></p><p>A software engineer, Gever Tulley is the co-founder of the Tinkering School, a weeklong camp where lucky kids get to play with their very own power tools. He&#39;s interested in helping kids learn how to build, solve problems, use new materials and hack old ones for new purposes. He&#39;s also a certified paragliding instructor. </p>", "slug": "gever_tulley", "whotheyare": "The founder of the Tinkering School, Gever Tulley likes to build things with kids.", "whatotherssay": "", "id": 180, "photo_url": "https://pe.tedcdn.com/images/ted/582a8f095b24be2578562967d0fb4fd9ac33b20f_254x191.jpg"}], "title": "Life lessons through tinkering", "take_action": null, "comments": 484, "more_resources": null, "hero": "https://pe.tedcdn.com/images/ted/99609_800x600.jpg", "description": "Gever Tulley uses engaging photos and footage to demonstrate the valuable lessons kids learn at his Tinkering School. When given tools, materials and guidance, these young imaginations run wild and creative problem-solving takes over to build unique boats, bridges and even a roller coaster!", "tags": ["children", "creativity", "design", "education", "innovation", "invention"], "downloads": {"languages": [{"languageCode": "af", "endonym": "Afrikaans", "isRtl": false, "ianaCode": "af", "languageName": "Afrikaans"}, {"languageCode": "sq", "endonym": "Shqip", "isRtl": false, "ianaCode": "sq", "languageName": "Albanian"}, {"languageCode": "ar", "endonym": "\\u0627\\u0644\\u0639\\u0631\\u0628\\u064a\\u0629", "isRtl": true, "ianaCode": "ar", "languageName": "Arabic"}, {"languageCode": "bg", "endonym": "\\u0431\\u044a\\u043b\\u0433\\u0430\\u0440\\u0441\\u043a\\u0438", "isRtl": false, "ianaCode": "bg", "languageName": "Bulgarian"}, {"languageCode": "my", "endonym": "\\u1019\\u103c\\u1014\\u103a\\u1019\\u102c\\u1018\\u102c\\u101e\\u102c", "isRtl": false, "ianaCode": "my", "languageName": "Burmese"}, {"languageCode": "zh-cn", "endonym": "\\u4e2d\\u6587 (\\u7b80\\u4f53)", "isRtl": false, "ianaCode": "zh-Hans", "languageName": "Chinese, Simplified"}, {"languageCode": "zh-tw", "endonym": "\\u4e2d\\u6587 (\\u7e41\\u9ad4)", "isRtl": false, "ianaCode": "zh-Hant", "languageName": "Chinese, Traditional"}, {"languageCode": "hr", "endonym": "Hrvatski", "isRtl": false, "ianaCode": "hr", "languageName": "Croatian"}, {"languageCode": "cs", "endonym": "\\u010ce\\u0161tina", "isRtl": false, "ianaCode": "cs", "languageName": "Czech"}, {"languageCode": "da", "endonym": "Dansk", "isRtl": false, "ianaCode": "da", "languageName": "Danish"}, {"languageCode": "nl", "endonym": "Nederlands", "isRtl": false, "ianaCode": "nl", "languageName": "Dutch"}, {"languageCode": "en", "endonym": "English", "isRtl": false, "ianaCode": "en", "languageName": "English"}, {"languageCode": "fil", "endonym": "Filipino", "isRtl": false, "ianaCode": "fil", "languageName": "Filipino"}, {"languageCode": "fr", "endonym": "Fran\\u00e7ais", "isRtl": false, "ianaCode": "fr", "languageName": "French"}, {"languageCode": "fr-ca", "endonym": "Fran\\u00e7ais canadien", "isRtl": false, "ianaCode": "fr-CA", "languageName": "French (Canada)"}, {"languageCode": "de", "endonym": "Deutsch", "isRtl": false, "ianaCode": "de", "languageName": "German"}, {"languageCode": "el", "endonym": "\\u0395\\u03bb\\u03bb\\u03b7\\u03bd\\u03b9\\u03ba\\u03ac", "isRtl": false, "ianaCode": "el", "languageName": "Greek"}, {"languageCode": "he", "endonym": "\\u05e2\\u05d1\\u05e8\\u05d9\\u05ea", "isRtl": true, "ianaCode": "he", "languageName": "Hebrew"}, {"languageCode": "hi", "endonym": "\\u0939\\u093f\\u0928\\u094d\\u0926\\u0940", "isRtl": false, "ianaCode": "hi", "languageName": "Hindi"}, {"languageCode": "hu", "endonym": "Magyar", "isRtl": false, "ianaCode": "hu", "languageName": "Hungarian"}, {"languageCode": "id", "endonym": "Bahasa Indonesia", "isRtl": false, "ianaCode": "id", "languageName": "Indonesian"}, {"languageCode": "it", "endonym": "Italiano", "isRtl": false, "ianaCode": "it", "languageName": "Italian"}, {"languageCode": "ja", "endonym": "\\u65e5\\u672c\\u8a9e", "isRtl": false, "ianaCode": "ja", "languageName": "Japanese"}, {"languageCode": "ko", "endonym": "\\ud55c\\uad6d\\uc5b4", "isRtl": false, "ianaCode": "ko", "languageName": "Korean"}, {"languageCode": "ku", "endonym": "\\u06a9\\u0648\\u0631\\u062f\\u06cc", "isRtl": true, "ianaCode": "ku", "languageName": "Kurdish"}, {"languageCode": "mr", "endonym": "\\u092e\\u0930\\u093e\\u0920\\u0940", "isRtl": false, "ianaCode": "mr", "languageName": "Marathi"}, {"languageCode": "nb", "endonym": "Norsk bokm\\u00e5l", "isRtl": false, "ianaCode": "nb", "languageName": "Norwegian Bokmal"}, {"languageCode": "fa", "endonym": "\\u0641\\u0627\\u0631\\u0633\\u0649", "isRtl": true, "ianaCode": "fa", "languageName": "Persian"}, {"languageCode": "pl", "endonym": "Polski", "isRtl": false, "ianaCode": "pl", "languageName": "Polish"}, {"languageCode": "pt", "endonym": "Portugu\\u00eas de Portugal", "isRtl": false, "ianaCode": "pt", "languageName": "Portuguese"}, {"languageCode": "pt-br", "endonym": "Portugu\\u00eas brasileiro", "isRtl": false, "ianaCode": "pt-BR", "languageName": "Portuguese, Brazilian"}, {"languageCode": "ro", "endonym": "Rom\\u00e2n\\u0103", "isRtl": false, "ianaCode": "ro", "languageName": "Romanian"}, {"languageCode": "ru", "endonym": "\\u0420\\u0443\\u0441\\u0441\\u043a\\u0438\\u0439", "isRtl": false, "ianaCode": "ru", "languageName": "Russian"}, {"languageCode": "sr", "endonym": "\\u0421\\u0440\\u043f\\u0441\\u043a\\u0438, Srpski", "isRtl": false, "ianaCode": "sr", "languageName": "Serbian"}, {"languageCode": "sk", "endonym": "Sloven\\u010dina", "isRtl": false, "ianaCode": "sk", "languageName": "Slovak"}, {"languageCode": "es", "endonym": "Espa\\u00f1ol", "isRtl": false, "ianaCode": "es", "languageName": "Spanish"}, {"languageCode": "th", "endonym": "\\u0e20\\u0e32\\u0e29\\u0e32\\u0e44\\u0e17\\u0e22", "isRtl": false, "ianaCode": "th", "languageName": "Thai"}, {"languageCode": "tr", "endonym": "T\\u00fcrk\\u00e7e", "isRtl": false, "ianaCode": "tr", "languageName": "Turkish"}, {"languageCode": "uk", "endonym": "\\u0423\\u043a\\u0440\\u0430\\u0457\\u043d\\u0441\\u044c\\u043a\\u0430", "isRtl": false, "ianaCode": "uk", "languageName": "Ukrainian"}, {"languageCode": "uz", "endonym": "O\'zbek", "isRtl": false, "ianaCode": "uz", "languageName": "Uzbek"}, {"languageCode": "vi", "endonym": "Ti\\u1ebfng Vi\\u1ec7t", "isRtl": false, "ianaCode": "vi", "languageName": "Vietnamese"}], "subtitledDownloads": {"el": {"high": "https://download.ted.com/talks/GeverTulley_2009-480p-el.mp4", "name": "Greek", "low": "https://download.ted.com/talks/GeverTulley_2009-low-el.mp4"}, "en": {"high": "https://download.ted.com/talks/GeverTulley_2009-480p-en.mp4", "name": "English", "low": "https://download.ted.com/talks/GeverTulley_2009-low-en.mp4"}, "af": {"high": "https://download.ted.com/talks/GeverTulley_2009-480p-af.mp4", "name": "Afrikaans", "low": "https://download.ted.com/talks/GeverTulley_2009-low-af.mp4"}, "vi": {"high": "https://download.ted.com/talks/GeverTulley_2009-480p-vi.mp4", "name": "Vietnamese", "low": "https://download.ted.com/talks/GeverTulley_2009-low-vi.mp4"}, "it": {"high": "https://download.ted.com/talks/GeverTulley_2009-480p-it.mp4", "name": "Italian", "low": "https://download.ted.com/talks/GeverTulley_2009-low-it.mp4"}, "ar": {"high": "https://download.ted.com/talks/GeverTulley_2009-480p-ar.mp4", "name": "Arabic", "low": "https://download.ted.com/talks/GeverTulley_2009-low-ar.mp4"}, "pt-br": {"high": "https://download.ted.com/talks/GeverTulley_2009-480p-pt-br.mp4", "name": "Portuguese, Brazilian", "low": "https://download.ted.com/talks/GeverTulley_2009-low-pt-br.mp4"}, "cs": {"high": "https://download.ted.com/talks/GeverTulley_2009-480p-cs.mp4", "name": "Czech", "low": "https://download.ted.com/talks/GeverTulley_2009-low-cs.mp4"}, "id": {"high": "https://download.ted.com/talks/GeverTulley_2009-480p-id.mp4", "name": "Indonesian", "low": "https://download.ted.com/talks/GeverTulley_2009-low-id.mp4"}, "es": {"high": "https://download.ted.com/talks/GeverTulley_2009-480p-es.mp4", "name": "Spanish", "low": "https://download.ted.com/talks/GeverTulley_2009-low-es.mp4"}, "ru": {"high": "https://download.ted.com/talks/GeverTulley_2009-480p-ru.mp4", "name": "Russian", "low": "https://download.ted.com/talks/GeverTulley_2009-low-ru.mp4"}, "nl": {"high": "https://download.ted.com/talks/GeverTulley_2009-480p-nl.mp4", "name": "Dutch", "low": "https://download.ted.com/talks/GeverTulley_2009-low-nl.mp4"}, "pt": {"high": "https://download.ted.com/talks/GeverTulley_2009-480p-pt.mp4", "name": "Portuguese", "low": "https://download.ted.com/talks/GeverTulley_2009-low-pt.mp4"}, "zh-cn": {"high": "https://download.ted.com/talks/GeverTulley_2009-480p-zh-cn.mp4", "name": "Chinese, Simplified", "low": "https://download.ted.com/talks/GeverTulley_2009-low-zh-cn.mp4"}, "zh-tw": {"high": "https://download.ted.com/talks/GeverTulley_2009-480p-zh-tw.mp4", "name": "Chinese, Traditional", "low": "https://download.ted.com/talks/GeverTulley_2009-low-zh-tw.mp4"}, "nb": {"high": "https://download.ted.com/talks/GeverTulley_2009-480p-nb.mp4", "name": "Norwegian Bokmal", "low": "https://download.ted.com/talks/GeverTulley_2009-low-nb.mp4"}, "tr": {"high": "https://download.ted.com/talks/GeverTulley_2009-480p-tr.mp4", "name": "Turkish", "low": "https://download.ted.com/talks/GeverTulley_2009-low-tr.mp4"}, "fr-ca": {"high": "https://download.ted.com/talks/GeverTulley_2009-480p-fr-ca.mp4", "name": "French (Canada)", "low": "https://download.ted.com/talks/GeverTulley_2009-low-fr-ca.mp4"}, "th": {"high": "https://download.ted.com/talks/GeverTulley_2009-480p-th.mp4", "name": "Thai", "low": "https://download.ted.com/talks/GeverTulley_2009-low-th.mp4"}, "ro": {"high": "https://download.ted.com/talks/GeverTulley_2009-480p-ro.mp4", "name": "Romanian", "low": "https://download.ted.com/talks/GeverTulley_2009-low-ro.mp4"}, "fil": {"high": "https://download.ted.com/talks/GeverTulley_2009-480p-fil.mp4", "name": "Filipino", "low": "https://download.ted.com/talks/GeverTulley_2009-low-fil.mp4"}, "fr": {"high": "https://download.ted.com/talks/GeverTulley_2009-480p-fr.mp4", "name": "French", "low": "https://download.ted.com/talks/GeverTulley_2009-low-fr.mp4"}, "bg": {"high": "https://download.ted.com/talks/GeverTulley_2009-480p-bg.mp4", "name": "Bulgarian", "low": "https://download.ted.com/talks/GeverTulley_2009-low-bg.mp4"}, "hr": {"high": "https://download.ted.com/talks/GeverTulley_2009-480p-hr.mp4", "name": "Croatian", "low": "https://download.ted.com/talks/GeverTulley_2009-low-hr.mp4"}, "de": {"high": "https://download.ted.com/talks/GeverTulley_2009-480p-de.mp4", "name": "German", "low": "https://download.ted.com/talks/GeverTulley_2009-low-de.mp4"}, "da": {"high": "https://download.ted.com/talks/GeverTulley_2009-480p-da.mp4", "name": "Danish", "low": "https://download.ted.com/talks/GeverTulley_2009-low-da.mp4"}, "fa": {"high": "https://download.ted.com/talks/GeverTulley_2009-480p-fa.mp4", "name": "Persian", "low": "https://download.ted.com/talks/GeverTulley_2009-low-fa.mp4"}, "hi": {"high": "https://download.ted.com/talks/GeverTulley_2009-480p-hi.mp4", "name": "Hindi", "low": "https://download.ted.com/talks/GeverTulley_2009-low-hi.mp4"}, "hu": {"high": "https://download.ted.com/talks/GeverTulley_2009-480p-hu.mp4", "name": "Hungarian", "low": "https://download.ted.com/talks/GeverTulley_2009-low-hu.mp4"}, "ja": {"high": "https://download.ted.com/talks/GeverTulley_2009-480p-ja.mp4", "name": "Japanese", "low": "https://download.ted.com/talks/GeverTulley_2009-low-ja.mp4"}, "he": {"high": "https://download.ted.com/talks/GeverTulley_2009-480p-he.mp4", "name": "Hebrew", "low": "https://download.ted.com/talks/GeverTulley_2009-low-he.mp4"}, "uz": {"high": "https://download.ted.com/talks/GeverTulley_2009-480p-uz.mp4", "name": "Uzbek", "low": "https://download.ted.com/talks/GeverTulley_2009-low-uz.mp4"}, "sr": {"high": "https://download.ted.com/talks/GeverTulley_2009-480p-sr.mp4", "name": "Serbian", "low": "https://download.ted.com/talks/GeverTulley_2009-low-sr.mp4"}, "sq": {"high": "https://download.ted.com/talks/GeverTulley_2009-480p-sq.mp4", "name": "Albanian", "low": "https://download.ted.com/talks/GeverTulley_2009-low-sq.mp4"}, "ko": {"high": "https://download.ted.com/talks/GeverTulley_2009-480p-ko.mp4", "name": "Korean", "low": "https://download.ted.com/talks/GeverTulley_2009-low-ko.mp4"}, "sk": {"high": "https://download.ted.com/talks/GeverTulley_2009-480p-sk.mp4", "name": "Slovak", "low": "https://download.ted.com/talks/GeverTulley_2009-low-sk.mp4"}, "pl": {"high": "https://download.ted.com/talks/GeverTulley_2009-480p-pl.mp4", "name": "Polish", "low": "https://download.ted.com/talks/GeverTulley_2009-low-pl.mp4"}, "uk": {"high": "https://download.ted.com/talks/GeverTulley_2009-480p-uk.mp4", "name": "Ukrainian", "low": "https://download.ted.com/talks/GeverTulley_2009-low-uk.mp4"}, "mr": {"high": "https://download.ted.com/talks/GeverTulley_2009-480p-mr.mp4", "name": "Marathi", "low": "https://download.ted.com/talks/GeverTulley_2009-low-mr.mp4"}, "my": {"high": "https://download.ted.com/talks/GeverTulley_2009-480p-my.mp4", "name": "Burmese", "low": "https://download.ted.com/talks/GeverTulley_2009-low-my.mp4"}}, "nativeDownloads": {"high": "https://download.ted.com/talks/GeverTulley_2009-480p.mp4?apikey=489b859150fc58263f17110eeb44ed5fba4a3b22", "medium": "https://download.ted.com/talks/GeverTulley_2009.mp4?apikey=489b859150fc58263f17110eeb44ed5fba4a3b22", "low": "https://download.ted.com/talks/GeverTulley_2009-light.mp4?apikey=489b859150fc58263f17110eeb44ed5fba4a3b22"}, "id": 588, "audioDownload": "https://download.ted.com/talks/GeverTulley_2009.mp3?apikey=489b859150fc58263f17110eeb44ed5fba4a3b22"}, "related_talks": [{"viewed_count": 4393965, "hero": "https://pe.tedcdn.com/images/ted/87205c20e5b3e1b63d04da23c04b22956087f0be_2880x1620.jpg", "title": "5 dangerous things you should let your kids do", "id": 202, "speaker": "Gever Tulley", "duration": 558, "slug": "gever_tulley_on_5_dangerous_things_for_kids"}, {"viewed_count": 47787296, "hero": "https://pe.tedcdn.com/images/ted/6b6eb940bceab359ca676a9b486aae475c1df883_2880x1620.jpg", "title": "Do schools kill creativity?", "id": 66, "speaker": "Ken Robinson", "duration": 1164, "slug": "ken_robinson_says_schools_kill_creativity"}, {"viewed_count": 2197380, "hero": "https://pe.tedcdn.com/images/ted/a7cc4ad21293eaa7b7c7a330dda600f4ff543fd3_2880x1620.jpg", "title": "Teach statistics before calculus!", "id": 587, "speaker": "Arthur Benjamin", "duration": 178, "slug": "arthur_benjamin_s_formula_for_changing_math_education"}, {"viewed_count": 5400604, "hero": "https://pe.tedcdn.com/images/ted/df7b1a3e1fe1b7ad65f630942d9e8c330b4ac9b4_1600x1200.jpg", "title": "To This Day ... for the bullied and beautiful", "id": 1687, "speaker": "Shane Koyczan", "duration": 723, "slug": "shane_koyczan_to_this_day_for_the_bullied_and_beautiful"}, {"viewed_count": 1587133, "hero": "https://pe.tedcdn.com/images/ted/178132_800x600.jpg", "title": "Let\'s raise kids to be entrepreneurs", "id": 887, "speaker": "Cameron Herold", "duration": 1284, "slug": "cameron_herold_let_s_raise_kids_to_be_entrepreneurs"}, {"viewed_count": 4817418, "hero": "https://pe.tedcdn.com/images/ted/e8842f13bd7916d9840fcaeeabff167c2a0ea48a_1600x1200.jpg", "title": "What adults can learn from kids", "id": 815, "speaker": "Adora Svitak", "duration": 492, "slug": "adora_svitak"}], "recorded_at": "2009-02-06T00:00:00.000+00:00", "slug": "gever_tulley_s_tinkering_school_in_action", "speaker_name": "Gever Tulley", "viewed_count": 1154385, "event_badge": null, "event_blurb": "This talk was presented at an official TED conference, and was featured by our editors on the home page.", "recommendations": null, "corrections": null}], "event": "TED2009", "name": "Gever Tulley: Life lessons through tinkering"}'
p117
sS'keywords'
p118
(lp119
Vchildren
p120
aVcreativity
p121
aVdesign
p122
aVeducation
p123
aVinnovation
p124
aVinvention
p125
asS'datecrawled'
p126
g112
(S'\x07\xe1\n\x17\x028+\x02\\\xa6'
tRp127
sS'id'
p128
I588
ss.