(dp1
S'talk_transcript'
p2
(lp3
(lp4
VLet's start with day and night.
p5
aVLife evolved under conditions
p6
aVof light and darkness,
p7
aVlight and then darkness.
p8
aVAnd so plants and animals
p9
aVdeveloped their own internal clocks
p10
aVso that they would be ready for these changes in light.
p11
aVThese are chemical clocks,
p12
aVand they're found in every known being that has two or more cells
p13
aVand in some that only have one cell.
p14
aa(lp15
VI'll give you an example \u2014
p16
aVif you take a horseshoe crab off the beach,
p17
aVand you fly it all the way across the continent,
p18
aVand you drop it into a sloped cage,
p19
aVit will scramble up the floor of the cage
p20
aVas the tide is rising
p21
aVon its home shores,
p22
aVand it'll skitter down again right as the water is receding
p23
aVthousands of miles away.
p24
aVIt'll do this for weeks,
p25
aVuntil it kind of gradually loses the plot.
p26
aVAnd it's incredible to watch,
p27
aVbut there's nothing psychic or paranormal going on;
p28
aVit's simply that these crabs have internal cycles
p29
aVthat correspond, usually, with what's going on around it.
p30
aa(lp31
VSo, we have this ability as well.
p32
aVAnd in humans, we call it the "body clock."
p33
aVYou can see this most clearly when you take away someone's watch
p34
aVand you shut them into a bunker, deep underground,
p35
aVfor a couple of months. (Laughter)
p36
aVPeople actually volunteer for this,
p37
aVand they usually come out
p38
aVkind of raving about their productive time in the hole.
p39
aVSo, no matter how atypical these subjects would have to be,
p40
aVthey all show the same thing.
p41
aVThey get up just a little bit later every day \u2014 say 15 minutes or so \u2014
p42
aVand they kind of drift all the way around the clock like this
p43
aVover the course of the weeks.
p44
aVAnd so, in this way we know that they are working on their own internal clocks,
p45
aVrather than somehow sensing the day outside.
p46
aa(lp47
VSo fine, we have a body clock,
p48
aVand it turns out that it's incredibly important in our lives.
p49
aVIt's a huge driver for culture
p50
aVand I think that it's the most underrated force on our behavior.
p51
aVWe evolved as a species near the equator,
p52
aVand so we're very well-equipped
p53
aVto deal with 12 hours of daylight
p54
aVand 12 hours of darkness.
p55
aVBut of course, we've spread to every corner of the globe
p56
aVand in Arctic Canada, where I live,
p57
aVwe have perpetual daylight in summer
p58
aVand 24 hours of darkness in winter.
p59
aVSo the culture, the northern aboriginal culture,
p60
aVtraditionally has been highly seasonal.
p61
aVIn winter, there's a lot of sleeping going on;
p62
aVyou enjoy your family life inside.
p63
aVAnd in summer, it's almost manic hunting
p64
aVand working activity very long hours,
p65
aVvery active.
p66
aa(lp67
VSo, what would our natural rhythm look like?
p68
aVWhat would our sleeping patterns be
p69
aVin the sort of ideal sense?
p70
aVWell, it turns out
p71
aVthat when people are living
p72
aVwithout any sort of artificial light at all,
p73
aVthey sleep twice every night.
p74
aVThey go to bed around 8:00 p.m.
p75
aVuntil midnight
p76
aVand then again, they sleep
p77
aVfrom about 2:00 a.m. until sunrise.
p78
aVAnd in-between, they have a couple of hours
p79
aVof sort of meditative quiet in bed.
p80
aVAnd during this time,
p81
aVthere's a surge of prolactin,
p82
aVthe likes of which a modern day never sees.
p83
aVThe people in these studies
p84
aVreport feeling so awake during the daytime,
p85
aVthat they realize
p86
aVthey're experiencing true wakefulness
p87
aVfor the first time in their lives.
p88
aa(lp89
VSo, cut to the modern day.
p90
aVWe're living in a culture of jet lag,
p91
aVglobal travel,
p92
aV24-hour business,
p93
aVshift work.
p94
aVAnd you know, our modern ways
p95
aVof doing things
p96
aVhave their advantages,
p97
aVbut I believe we should understand the costs.
p98
aa(lp99
VThank you.
p100
aa(lp101
V(Applause)
p102
aasS'transcript_micsec'
p103
(lp104
I12000
aI34000
aI71000
aI110000
aI158000
aI205000
aI226000
aI228000
asS'talk_meta'
p105
(dp106
S'ratings'
p107
(dp108
S'ingenious'
p109
I32
sS'beautiful'
p110
I25
sS'inspiring'
p111
I136
sS'ok'
p112
I609
sS'fascinating'
p113
I399
sS'funny'
p114
I11
sS'total_count'
p115
I2824
sS'persuasive'
p116
I158
sS'longwinded'
p117
I30
sS'informative'
p118
I919
sS'jaw-dropping'
p119
I27
sS'obnoxious'
p120
I21
sS'confusing'
p121
I117
sS'courageous'
p122
I11
sS'unconvincing'
p123
I329
ssS'author'
p124
VJessa_Gamble;
p125
sS'url'
p126
S'https://www.ted.com/talks/jessa_gamble_how_to_sleep'
p127
sS'vidlen'
p128
I241
sS'totalviews'
p129
I2271319
sS'title'
p130
VOur natural sleep cycle is nothing like what we do now
p131
sS'downloadlink'
p132
Vhttps://download.ted.com/talks/JessaGamble_2010G.mp4?apikey=489b859150fc58263f17110eeb44ed5fba4a3b22
p133
sS'datepublished'
p134
cdatetime
datetime
p135
(S'\x07\xda\t\x0f\x05\x04\x00\x00\x00\x00'
tRp136
sS'datefilmed'
p137
g135
(S'\x07\xda\t\x0f\x05\x04\x00\x00\x00\x00'
tRp138
sS'alldata_JSON'
p139
S'{"viewed_count": 2271319, "speakers": [{"description": "Writer", "firstname": "Jessa", "title": "", "lastname": "Gamble", "middleinitial": "", "whylisten": "<p>Jessa Gamble is an award-winning writer from Oxford, who lives in the Canadian Subarctic. Now that humanity has spread right to the Earth&#39;s poles and adopted a 24-hour business day, Gamble argues that our internal clocks struggle against our urban schedules. Her work documents the rituals surrounding daily rhythms, which along with local languages and beliefs are losing their rich global diversity and succumbing to a kind of circadian imperialism. </p><p>A dynamic new voice in popular science, Gamble was awarded a 2007 Science in Society journalism award from the Canadian Science Writers Association for her first-person account of daily life at the Eureka High Arctic Weather Station. She is the author of<em>&nbsp;</em><a href=\\"http://geni.us/siestaandmidnightsun\\" target=\\"_blank\\"><em>Siesta and The Midnight Sun: How We Measure and Experience Time</em></a>.</p>", "slug": "jessa_gamble", "whotheyare": "Jessa Gamble writes about sleep and time, showing how our internal body clock struggles against our always-on global culture.", "whatotherssay": "", "id": 796, "photo_url": "https://pe.tedcdn.com/images/ted/198862_254x191.jpg"}], "current_talk": 957, "description": "In today\'s world, balancing school, work, kids and more, most of us can only hope for the recommended eight hours of sleep. Examining the science behind our body\'s internal clock, Jessa Gamble reveals the surprising and substantial program of rest we should be observing.", "language": "en", "url": "https://www.ted.com/talks/jessa_gamble_how_to_sleep", "media": {"internal": {"podcast-high-en": {"uri": "https://download.ted.com/talks/JessaGamble_2010G-480p-en.mp4?apikey=489b859150fc58263f17110eeb44ed5fba4a3b22", "mime_type": "video/mp4", "filesize_bytes": 28355950}, "podcast-low-en": {"uri": "https://download.ted.com/talks/JessaGamble_2010G-low-en.mp4?apikey=489b859150fc58263f17110eeb44ed5fba4a3b22", "mime_type": "video/mp4", "filesize_bytes": 5599059}, "podcast-high": {"uri": "https://download.ted.com/talks/JessaGamble_2010G-480p.mp4?apikey=489b859150fc58263f17110eeb44ed5fba4a3b22", "mime_type": "video/mp4", "filesize_bytes": 28374784}, "180k": {"uri": "https://download.ted.com/talks/JessaGamble_2010G-180k.mp4?apikey=489b859150fc58263f17110eeb44ed5fba4a3b22", "mime_type": "video/mp4", "filesize_bytes": 5336950}, "64k": {"uri": "https://download.ted.com/talks/JessaGamble_2010G-64k.mp4?apikey=489b859150fc58263f17110eeb44ed5fba4a3b22", "mime_type": "video/mp4", "filesize_bytes": 1964016}, "1500k": {"uri": "https://download.ted.com/talks/JessaGamble_2010G-1500k.mp4?apikey=489b859150fc58263f17110eeb44ed5fba4a3b22", "mime_type": "video/mp4", "filesize_bytes": 44035603}, "450k": {"uri": "https://download.ted.com/talks/JessaGamble_2010G-450k.mp4?apikey=489b859150fc58263f17110eeb44ed5fba4a3b22", "mime_type": "video/mp4", "filesize_bytes": 13527775}, "podcast-regular": {"uri": "https://download.ted.com/talks/JessaGamble_2010G.mp4?apikey=489b859150fc58263f17110eeb44ed5fba4a3b22", "mime_type": "video/mp4", "filesize_bytes": 13815416}, "950k": {"uri": "https://download.ted.com/talks/JessaGamble_2010G-950k.mp4?apikey=489b859150fc58263f17110eeb44ed5fba4a3b22", "mime_type": "video/mp4", "filesize_bytes": 27963534}, "audio-podcast": {"uri": "https://download.ted.com/talks/JessaGamble_2010G.mp3?apikey=489b859150fc58263f17110eeb44ed5fba4a3b22", "mime_type": "audio/mp3", "filesize_bytes": 2618933}, "podcast-light": {"uri": "https://download.ted.com/talks/JessaGamble_2010G-light.mp4?apikey=489b859150fc58263f17110eeb44ed5fba4a3b22", "mime_type": "video/mp4", "filesize_bytes": 2101499}, "320k": {"uri": "https://download.ted.com/talks/JessaGamble_2010G-320k.mp4?apikey=489b859150fc58263f17110eeb44ed5fba4a3b22", "mime_type": "video/mp4", "filesize_bytes": 9534398}, "600k": {"uri": "https://download.ted.com/talks/JessaGamble_2010G-600k.mp4?apikey=489b859150fc58263f17110eeb44ed5fba4a3b22", "mime_type": "video/mp4", "filesize_bytes": 18295281}}}, "comments": {"count": 242, "id": 786, "talk_id": 957}, "slug": "jessa_gamble_how_to_sleep", "threadId": 786, "talks": [{"event": "TEDGlobal 2010", "player_talks": [{"event": "TEDGlobal 2010", "slug": "jessa_gamble_how_to_sleep", "filmed": 1279152000, "targeting": {"event": "TEDGlobal 2010", "tag": "evolution,humanity,personal growth,science,self", "id": 957, "talk": "jessa_gamble_how_to_sleep", "year": "2010"}, "adDuration": "3.33", "external": null, "title": "Our natural sleep cycle is nothing like what we do now", "postAdDuration": "0.83", "published": 1284541440, "thumb": "https://pi.tedcdn.com/r/pe.tedcdn.com/images/ted/198859_800x600.jpg?quality=89&w=600", "name": "Jessa Gamble: Our natural sleep cycle is nothing like what we do now", "languages": [{"languageCode": "sq", "endonym": "Shqip", "isRtl": false, "ianaCode": "sq", "languageName": "Albanian"}, {"languageCode": "ar", "endonym": "\\u0627\\u0644\\u0639\\u0631\\u0628\\u064a\\u0629", "isRtl": true, "ianaCode": "ar", "languageName": "Arabic"}, {"languageCode": "bg", "endonym": "\\u0431\\u044a\\u043b\\u0433\\u0430\\u0440\\u0441\\u043a\\u0438", "isRtl": false, "ianaCode": "bg", "languageName": "Bulgarian"}, {"languageCode": "my", "endonym": "\\u1019\\u103c\\u1014\\u103a\\u1019\\u102c\\u1018\\u102c\\u101e\\u102c", "isRtl": false, "ianaCode": "my", "languageName": "Burmese"}, {"languageCode": "ca", "endonym": "Catal\\u00e0", "isRtl": false, "ianaCode": "ca", "languageName": "Catalan"}, {"languageCode": "zh-cn", "endonym": "\\u4e2d\\u6587 (\\u7b80\\u4f53)", "isRtl": false, "ianaCode": "zh-Hans", "languageName": "Chinese, Simplified"}, {"languageCode": "zh-tw", "endonym": "\\u4e2d\\u6587 (\\u7e41\\u9ad4)", "isRtl": false, "ianaCode": "zh-Hant", "languageName": "Chinese, Traditional"}, {"languageCode": "hr", "endonym": "Hrvatski", "isRtl": false, "ianaCode": "hr", "languageName": "Croatian"}, {"languageCode": "cs", "endonym": "\\u010ce\\u0161tina", "isRtl": false, "ianaCode": "cs", "languageName": "Czech"}, {"languageCode": "da", "endonym": "Dansk", "isRtl": false, "ianaCode": "da", "languageName": "Danish"}, {"languageCode": "nl", "endonym": "Nederlands", "isRtl": false, "ianaCode": "nl", "languageName": "Dutch"}, {"languageCode": "en", "endonym": "English", "isRtl": false, "ianaCode": "en", "languageName": "English"}, {"languageCode": "fr", "endonym": "Fran\\u00e7ais", "isRtl": false, "ianaCode": "fr", "languageName": "French"}, {"languageCode": "fr-ca", "endonym": "Fran\\u00e7ais canadien", "isRtl": false, "ianaCode": "fr-CA", "languageName": "French (Canada)"}, {"languageCode": "de", "endonym": "Deutsch", "isRtl": false, "ianaCode": "de", "languageName": "German"}, {"languageCode": "el", "endonym": "\\u0395\\u03bb\\u03bb\\u03b7\\u03bd\\u03b9\\u03ba\\u03ac", "isRtl": false, "ianaCode": "el", "languageName": "Greek"}, {"languageCode": "he", "endonym": "\\u05e2\\u05d1\\u05e8\\u05d9\\u05ea", "isRtl": true, "ianaCode": "he", "languageName": "Hebrew"}, {"languageCode": "hu", "endonym": "Magyar", "isRtl": false, "ianaCode": "hu", "languageName": "Hungarian"}, {"languageCode": "id", "endonym": "Bahasa Indonesia", "isRtl": false, "ianaCode": "id", "languageName": "Indonesian"}, {"languageCode": "it", "endonym": "Italiano", "isRtl": false, "ianaCode": "it", "languageName": "Italian"}, {"languageCode": "ja", "endonym": "\\u65e5\\u672c\\u8a9e", "isRtl": false, "ianaCode": "ja", "languageName": "Japanese"}, {"languageCode": "ko", "endonym": "\\ud55c\\uad6d\\uc5b4", "isRtl": false, "ianaCode": "ko", "languageName": "Korean"}, {"languageCode": "lv", "endonym": "Latvie\\u0161u", "isRtl": false, "ianaCode": "lv", "languageName": "Latvian"}, {"languageCode": "nb", "endonym": "Norsk bokm\\u00e5l", "isRtl": false, "ianaCode": "nb", "languageName": "Norwegian Bokmal"}, {"languageCode": "fa", "endonym": "\\u0641\\u0627\\u0631\\u0633\\u0649", "isRtl": true, "ianaCode": "fa", "languageName": "Persian"}, {"languageCode": "pl", "endonym": "Polski", "isRtl": false, "ianaCode": "pl", "languageName": "Polish"}, {"languageCode": "pt", "endonym": "Portugu\\u00eas de Portugal", "isRtl": false, "ianaCode": "pt", "languageName": "Portuguese"}, {"languageCode": "pt-br", "endonym": "Portugu\\u00eas brasileiro", "isRtl": false, "ianaCode": "pt-BR", "languageName": "Portuguese, Brazilian"}, {"languageCode": "ro", "endonym": "Rom\\u00e2n\\u0103", "isRtl": false, "ianaCode": "ro", "languageName": "Romanian"}, {"languageCode": "ru", "endonym": "\\u0420\\u0443\\u0441\\u0441\\u043a\\u0438\\u0439", "isRtl": false, "ianaCode": "ru", "languageName": "Russian"}, {"languageCode": "sr", "endonym": "\\u0421\\u0440\\u043f\\u0441\\u043a\\u0438, Srpski", "isRtl": false, "ianaCode": "sr", "languageName": "Serbian"}, {"languageCode": "sk", "endonym": "Sloven\\u010dina", "isRtl": false, "ianaCode": "sk", "languageName": "Slovak"}, {"languageCode": "sl", "endonym": "Sloven\\u0161\\u010dina", "isRtl": false, "ianaCode": "sl", "languageName": "Slovenian"}, {"languageCode": "es", "endonym": "Espa\\u00f1ol", "isRtl": false, "ianaCode": "es", "languageName": "Spanish"}, {"languageCode": "sv", "endonym": "Svenska", "isRtl": false, "ianaCode": "sv", "languageName": "Swedish"}, {"languageCode": "th", "endonym": "\\u0e20\\u0e32\\u0e29\\u0e32\\u0e44\\u0e17\\u0e22", "isRtl": false, "ianaCode": "th", "languageName": "Thai"}, {"languageCode": "tr", "endonym": "T\\u00fcrk\\u00e7e", "isRtl": false, "ianaCode": "tr", "languageName": "Turkish"}, {"languageCode": "uk", "endonym": "\\u0423\\u043a\\u0440\\u0430\\u0457\\u043d\\u0441\\u044c\\u043a\\u0430", "isRtl": false, "ianaCode": "uk", "languageName": "Ukrainian"}, {"languageCode": "vi", "endonym": "Ti\\u1ebfng Vi\\u1ec7t", "isRtl": false, "ianaCode": "vi", "languageName": "Vietnamese"}], "nativeLanguage": "en", "tags": ["evolution", "humanity", "personal growth", "science", "self"], "speaker": "Jessa Gamble", "isSubtitleRequired": false, "introDuration": 11.82, "duration": 241, "id": 957, "resources": {"h264": [{"bitrate": 320, "file": "https://download.ted.com/talks/JessaGamble_2010G-320k.mp4?dnt"}], "hls": {"maiTargeting": {"event": "TEDGlobal 2010", "tag": "evolution,humanity,personal growth,science,self", "id": 957, "talk": "jessa_gamble_how_to_sleep", "year": "2010"}, "metadata": "https://hls.ted.com/talks/957.json", "stream": "https://hls.ted.com/talks/957.m3u8", "adUrl": "https://pubads.g.doubleclick.net/gampad/ads?ciu_szs=300x250%2C512x288%2C120x60%2C320x50%2C6x7%2C6x8&correlator=%5Bcorrelator%5D&cust_params=event%3DTEDGlobal%2B2010%26id%3D957%26tag%3Devolution%2Chumanity%2Cpersonal%2Bgrowth%2Cscience%2Cself%26talk%3Djessa_gamble_how_to_sleep%26year%3D2010&env=vp&gdfp_req=1&impl=s&iu=%2F5641%2Fmobile%2Fios%2Fweb&output=xml_vast2&sz=640x360&unviewed_position_start=1&url=%5Breferrer%5D"}}, "canonical": "https://www.ted.com/talks/jessa_gamble_how_to_sleep"}], "hero_load": "https://pi.tedcdn.com/r/pe.tedcdn.com/images/ted/198859_800x600.jpg?q=50&w=15", "duration": 241, "id": 957, "ratings": [{"count": 609, "id": 25, "name": "OK"}, {"count": 329, "id": 21, "name": "Unconvincing"}, {"count": 136, "id": 10, "name": "Inspiring"}, {"count": 919, "id": 8, "name": "Informative"}, {"count": 399, "id": 22, "name": "Fascinating"}, {"count": 158, "id": 24, "name": "Persuasive"}, {"count": 117, "id": 2, "name": "Confusing"}, {"count": 27, "id": 23, "name": "Jaw-dropping"}, {"count": 30, "id": 11, "name": "Longwinded"}, {"count": 21, "id": 26, "name": "Obnoxious"}, {"count": 32, "id": 9, "name": "Ingenious"}, {"count": 11, "id": 3, "name": "Courageous"}, {"count": 25, "id": 1, "name": "Beautiful"}, {"count": 11, "id": 7, "name": "Funny"}], "speakers": [{"description": "Writer", "firstname": "Jessa", "title": "", "lastname": "Gamble", "middleinitial": "", "whylisten": "<p>Jessa Gamble is an award-winning writer from Oxford, who lives in the Canadian Subarctic. Now that humanity has spread right to the Earth&#39;s poles and adopted a 24-hour business day, Gamble argues that our internal clocks struggle against our urban schedules. Her work documents the rituals surrounding daily rhythms, which along with local languages and beliefs are losing their rich global diversity and succumbing to a kind of circadian imperialism. </p><p>A dynamic new voice in popular science, Gamble was awarded a 2007 Science in Society journalism award from the Canadian Science Writers Association for her first-person account of daily life at the Eureka High Arctic Weather Station. She is the author of<em>&nbsp;</em><a href=\\"http://geni.us/siestaandmidnightsun\\" target=\\"_blank\\"><em>Siesta and The Midnight Sun: How We Measure and Experience Time</em></a>.</p>", "slug": "jessa_gamble", "whotheyare": "Jessa Gamble writes about sleep and time, showing how our internal body clock struggles against our always-on global culture.", "whatotherssay": "", "id": 796, "photo_url": "https://pe.tedcdn.com/images/ted/198862_254x191.jpg"}], "title": "Our natural sleep cycle is nothing like what we do now", "take_action": [], "comments": 786, "more_resources": [], "hero": "https://pe.tedcdn.com/images/ted/198859_800x600.jpg", "description": "In today\'s world, balancing school, work, kids and more, most of us can only hope for the recommended eight hours of sleep. Examining the science behind our body\'s internal clock, Jessa Gamble reveals the surprising and substantial program of rest we should be observing.", "tags": ["evolution", "humanity", "personal growth", "science", "self"], "downloads": {"languages": [{"languageCode": "sq", "endonym": "Shqip", "isRtl": false, "ianaCode": "sq", "languageName": "Albanian"}, {"languageCode": "ar", "endonym": "\\u0627\\u0644\\u0639\\u0631\\u0628\\u064a\\u0629", "isRtl": true, "ianaCode": "ar", "languageName": "Arabic"}, {"languageCode": "bg", "endonym": "\\u0431\\u044a\\u043b\\u0433\\u0430\\u0440\\u0441\\u043a\\u0438", "isRtl": false, "ianaCode": "bg", "languageName": "Bulgarian"}, {"languageCode": "my", "endonym": "\\u1019\\u103c\\u1014\\u103a\\u1019\\u102c\\u1018\\u102c\\u101e\\u102c", "isRtl": false, "ianaCode": "my", "languageName": "Burmese"}, {"languageCode": "ca", "endonym": "Catal\\u00e0", "isRtl": false, "ianaCode": "ca", "languageName": "Catalan"}, {"languageCode": "zh-cn", "endonym": "\\u4e2d\\u6587 (\\u7b80\\u4f53)", "isRtl": false, "ianaCode": "zh-Hans", "languageName": "Chinese, Simplified"}, {"languageCode": "zh-tw", "endonym": "\\u4e2d\\u6587 (\\u7e41\\u9ad4)", "isRtl": false, "ianaCode": "zh-Hant", "languageName": "Chinese, Traditional"}, {"languageCode": "hr", "endonym": "Hrvatski", "isRtl": false, "ianaCode": "hr", "languageName": "Croatian"}, {"languageCode": "cs", "endonym": "\\u010ce\\u0161tina", "isRtl": false, "ianaCode": "cs", "languageName": "Czech"}, {"languageCode": "da", "endonym": "Dansk", "isRtl": false, "ianaCode": "da", "languageName": "Danish"}, {"languageCode": "nl", "endonym": "Nederlands", "isRtl": false, "ianaCode": "nl", "languageName": "Dutch"}, {"languageCode": "en", "endonym": "English", "isRtl": false, "ianaCode": "en", "languageName": "English"}, {"languageCode": "fr", "endonym": "Fran\\u00e7ais", "isRtl": false, "ianaCode": "fr", "languageName": "French"}, {"languageCode": "fr-ca", "endonym": "Fran\\u00e7ais canadien", "isRtl": false, "ianaCode": "fr-CA", "languageName": "French (Canada)"}, {"languageCode": "de", "endonym": "Deutsch", "isRtl": false, "ianaCode": "de", "languageName": "German"}, {"languageCode": "el", "endonym": "\\u0395\\u03bb\\u03bb\\u03b7\\u03bd\\u03b9\\u03ba\\u03ac", "isRtl": false, "ianaCode": "el", "languageName": "Greek"}, {"languageCode": "he", "endonym": "\\u05e2\\u05d1\\u05e8\\u05d9\\u05ea", "isRtl": true, "ianaCode": "he", "languageName": "Hebrew"}, {"languageCode": "hu", "endonym": "Magyar", "isRtl": false, "ianaCode": "hu", "languageName": "Hungarian"}, {"languageCode": "id", "endonym": "Bahasa Indonesia", "isRtl": false, "ianaCode": "id", "languageName": "Indonesian"}, {"languageCode": "it", "endonym": "Italiano", "isRtl": false, "ianaCode": "it", "languageName": "Italian"}, {"languageCode": "ja", "endonym": "\\u65e5\\u672c\\u8a9e", "isRtl": false, "ianaCode": "ja", "languageName": "Japanese"}, {"languageCode": "ko", "endonym": "\\ud55c\\uad6d\\uc5b4", "isRtl": false, "ianaCode": "ko", "languageName": "Korean"}, {"languageCode": "lv", "endonym": "Latvie\\u0161u", "isRtl": false, "ianaCode": "lv", "languageName": "Latvian"}, {"languageCode": "nb", "endonym": "Norsk bokm\\u00e5l", "isRtl": false, "ianaCode": "nb", "languageName": "Norwegian Bokmal"}, {"languageCode": "fa", "endonym": "\\u0641\\u0627\\u0631\\u0633\\u0649", "isRtl": true, "ianaCode": "fa", "languageName": "Persian"}, {"languageCode": "pl", "endonym": "Polski", "isRtl": false, "ianaCode": "pl", "languageName": "Polish"}, {"languageCode": "pt", "endonym": "Portugu\\u00eas de Portugal", "isRtl": false, "ianaCode": "pt", "languageName": "Portuguese"}, {"languageCode": "pt-br", "endonym": "Portugu\\u00eas brasileiro", "isRtl": false, "ianaCode": "pt-BR", "languageName": "Portuguese, Brazilian"}, {"languageCode": "ro", "endonym": "Rom\\u00e2n\\u0103", "isRtl": false, "ianaCode": "ro", "languageName": "Romanian"}, {"languageCode": "ru", "endonym": "\\u0420\\u0443\\u0441\\u0441\\u043a\\u0438\\u0439", "isRtl": false, "ianaCode": "ru", "languageName": "Russian"}, {"languageCode": "sr", "endonym": "\\u0421\\u0440\\u043f\\u0441\\u043a\\u0438, Srpski", "isRtl": false, "ianaCode": "sr", "languageName": "Serbian"}, {"languageCode": "sk", "endonym": "Sloven\\u010dina", "isRtl": false, "ianaCode": "sk", "languageName": "Slovak"}, {"languageCode": "sl", "endonym": "Sloven\\u0161\\u010dina", "isRtl": false, "ianaCode": "sl", "languageName": "Slovenian"}, {"languageCode": "es", "endonym": "Espa\\u00f1ol", "isRtl": false, "ianaCode": "es", "languageName": "Spanish"}, {"languageCode": "sv", "endonym": "Svenska", "isRtl": false, "ianaCode": "sv", "languageName": "Swedish"}, {"languageCode": "th", "endonym": "\\u0e20\\u0e32\\u0e29\\u0e32\\u0e44\\u0e17\\u0e22", "isRtl": false, "ianaCode": "th", "languageName": "Thai"}, {"languageCode": "tr", "endonym": "T\\u00fcrk\\u00e7e", "isRtl": false, "ianaCode": "tr", "languageName": "Turkish"}, {"languageCode": "uk", "endonym": "\\u0423\\u043a\\u0440\\u0430\\u0457\\u043d\\u0441\\u044c\\u043a\\u0430", "isRtl": false, "ianaCode": "uk", "languageName": "Ukrainian"}, {"languageCode": "vi", "endonym": "Ti\\u1ebfng Vi\\u1ec7t", "isRtl": false, "ianaCode": "vi", "languageName": "Vietnamese"}], "subtitledDownloads": {"el": {"high": "https://download.ted.com/talks/JessaGamble_2010G-480p-el.mp4", "name": "Greek", "low": "https://download.ted.com/talks/JessaGamble_2010G-low-el.mp4"}, "en": {"high": "https://download.ted.com/talks/JessaGamble_2010G-480p-en.mp4", "name": "English", "low": "https://download.ted.com/talks/JessaGamble_2010G-low-en.mp4"}, "vi": {"high": "https://download.ted.com/talks/JessaGamble_2010G-480p-vi.mp4", "name": "Vietnamese", "low": "https://download.ted.com/talks/JessaGamble_2010G-low-vi.mp4"}, "ca": {"high": "https://download.ted.com/talks/JessaGamble_2010G-480p-ca.mp4", "name": "Catalan", "low": "https://download.ted.com/talks/JessaGamble_2010G-low-ca.mp4"}, "it": {"high": "https://download.ted.com/talks/JessaGamble_2010G-480p-it.mp4", "name": "Italian", "low": "https://download.ted.com/talks/JessaGamble_2010G-low-it.mp4"}, "ar": {"high": "https://download.ted.com/talks/JessaGamble_2010G-480p-ar.mp4", "name": "Arabic", "low": "https://download.ted.com/talks/JessaGamble_2010G-low-ar.mp4"}, "pt-br": {"high": "https://download.ted.com/talks/JessaGamble_2010G-480p-pt-br.mp4", "name": "Portuguese, Brazilian", "low": "https://download.ted.com/talks/JessaGamble_2010G-low-pt-br.mp4"}, "cs": {"high": "https://download.ted.com/talks/JessaGamble_2010G-480p-cs.mp4", "name": "Czech", "low": "https://download.ted.com/talks/JessaGamble_2010G-low-cs.mp4"}, "id": {"high": "https://download.ted.com/talks/JessaGamble_2010G-480p-id.mp4", "name": "Indonesian", "low": "https://download.ted.com/talks/JessaGamble_2010G-low-id.mp4"}, "es": {"high": "https://download.ted.com/talks/JessaGamble_2010G-480p-es.mp4", "name": "Spanish", "low": "https://download.ted.com/talks/JessaGamble_2010G-low-es.mp4"}, "ru": {"high": "https://download.ted.com/talks/JessaGamble_2010G-480p-ru.mp4", "name": "Russian", "low": "https://download.ted.com/talks/JessaGamble_2010G-low-ru.mp4"}, "nl": {"high": "https://download.ted.com/talks/JessaGamble_2010G-480p-nl.mp4", "name": "Dutch", "low": "https://download.ted.com/talks/JessaGamble_2010G-low-nl.mp4"}, "pt": {"high": "https://download.ted.com/talks/JessaGamble_2010G-480p-pt.mp4", "name": "Portuguese", "low": "https://download.ted.com/talks/JessaGamble_2010G-low-pt.mp4"}, "zh-cn": {"high": "https://download.ted.com/talks/JessaGamble_2010G-480p-zh-cn.mp4", "name": "Chinese, Simplified", "low": "https://download.ted.com/talks/JessaGamble_2010G-low-zh-cn.mp4"}, "zh-tw": {"high": "https://download.ted.com/talks/JessaGamble_2010G-480p-zh-tw.mp4", "name": "Chinese, Traditional", "low": "https://download.ted.com/talks/JessaGamble_2010G-low-zh-tw.mp4"}, "nb": {"high": "https://download.ted.com/talks/JessaGamble_2010G-480p-nb.mp4", "name": "Norwegian Bokmal", "low": "https://download.ted.com/talks/JessaGamble_2010G-low-nb.mp4"}, "tr": {"high": "https://download.ted.com/talks/JessaGamble_2010G-480p-tr.mp4", "name": "Turkish", "low": "https://download.ted.com/talks/JessaGamble_2010G-low-tr.mp4"}, "lv": {"high": "https://download.ted.com/talks/JessaGamble_2010G-480p-lv.mp4", "name": "Latvian", "low": "https://download.ted.com/talks/JessaGamble_2010G-low-lv.mp4"}, "fr-ca": {"high": "https://download.ted.com/talks/JessaGamble_2010G-480p-fr-ca.mp4", "name": "French (Canada)", "low": "https://download.ted.com/talks/JessaGamble_2010G-low-fr-ca.mp4"}, "th": {"high": "https://download.ted.com/talks/JessaGamble_2010G-480p-th.mp4", "name": "Thai", "low": "https://download.ted.com/talks/JessaGamble_2010G-low-th.mp4"}, "ro": {"high": "https://download.ted.com/talks/JessaGamble_2010G-480p-ro.mp4", "name": "Romanian", "low": "https://download.ted.com/talks/JessaGamble_2010G-low-ro.mp4"}, "pl": {"high": "https://download.ted.com/talks/JessaGamble_2010G-480p-pl.mp4", "name": "Polish", "low": "https://download.ted.com/talks/JessaGamble_2010G-low-pl.mp4"}, "fr": {"high": "https://download.ted.com/talks/JessaGamble_2010G-480p-fr.mp4", "name": "French", "low": "https://download.ted.com/talks/JessaGamble_2010G-low-fr.mp4"}, "bg": {"high": "https://download.ted.com/talks/JessaGamble_2010G-480p-bg.mp4", "name": "Bulgarian", "low": "https://download.ted.com/talks/JessaGamble_2010G-low-bg.mp4"}, "hr": {"high": "https://download.ted.com/talks/JessaGamble_2010G-480p-hr.mp4", "name": "Croatian", "low": "https://download.ted.com/talks/JessaGamble_2010G-low-hr.mp4"}, "de": {"high": "https://download.ted.com/talks/JessaGamble_2010G-480p-de.mp4", "name": "German", "low": "https://download.ted.com/talks/JessaGamble_2010G-low-de.mp4"}, "da": {"high": "https://download.ted.com/talks/JessaGamble_2010G-480p-da.mp4", "name": "Danish", "low": "https://download.ted.com/talks/JessaGamble_2010G-low-da.mp4"}, "fa": {"high": "https://download.ted.com/talks/JessaGamble_2010G-480p-fa.mp4", "name": "Persian", "low": "https://download.ted.com/talks/JessaGamble_2010G-low-fa.mp4"}, "hu": {"high": "https://download.ted.com/talks/JessaGamble_2010G-480p-hu.mp4", "name": "Hungarian", "low": "https://download.ted.com/talks/JessaGamble_2010G-low-hu.mp4"}, "ja": {"high": "https://download.ted.com/talks/JessaGamble_2010G-480p-ja.mp4", "name": "Japanese", "low": "https://download.ted.com/talks/JessaGamble_2010G-low-ja.mp4"}, "he": {"high": "https://download.ted.com/talks/JessaGamble_2010G-480p-he.mp4", "name": "Hebrew", "low": "https://download.ted.com/talks/JessaGamble_2010G-low-he.mp4"}, "sr": {"high": "https://download.ted.com/talks/JessaGamble_2010G-480p-sr.mp4", "name": "Serbian", "low": "https://download.ted.com/talks/JessaGamble_2010G-low-sr.mp4"}, "sq": {"high": "https://download.ted.com/talks/JessaGamble_2010G-480p-sq.mp4", "name": "Albanian", "low": "https://download.ted.com/talks/JessaGamble_2010G-low-sq.mp4"}, "ko": {"high": "https://download.ted.com/talks/JessaGamble_2010G-480p-ko.mp4", "name": "Korean", "low": "https://download.ted.com/talks/JessaGamble_2010G-low-ko.mp4"}, "sv": {"high": "https://download.ted.com/talks/JessaGamble_2010G-480p-sv.mp4", "name": "Swedish", "low": "https://download.ted.com/talks/JessaGamble_2010G-low-sv.mp4"}, "sk": {"high": "https://download.ted.com/talks/JessaGamble_2010G-480p-sk.mp4", "name": "Slovak", "low": "https://download.ted.com/talks/JessaGamble_2010G-low-sk.mp4"}, "uk": {"high": "https://download.ted.com/talks/JessaGamble_2010G-480p-uk.mp4", "name": "Ukrainian", "low": "https://download.ted.com/talks/JessaGamble_2010G-low-uk.mp4"}, "sl": {"high": "https://download.ted.com/talks/JessaGamble_2010G-480p-sl.mp4", "name": "Slovenian", "low": "https://download.ted.com/talks/JessaGamble_2010G-low-sl.mp4"}, "my": {"high": "https://download.ted.com/talks/JessaGamble_2010G-480p-my.mp4", "name": "Burmese", "low": "https://download.ted.com/talks/JessaGamble_2010G-low-my.mp4"}}, "nativeDownloads": {"high": "https://download.ted.com/talks/JessaGamble_2010G-480p.mp4?apikey=489b859150fc58263f17110eeb44ed5fba4a3b22", "medium": "https://download.ted.com/talks/JessaGamble_2010G.mp4?apikey=489b859150fc58263f17110eeb44ed5fba4a3b22", "low": "https://download.ted.com/talks/JessaGamble_2010G-light.mp4?apikey=489b859150fc58263f17110eeb44ed5fba4a3b22"}, "id": 957, "audioDownload": "https://download.ted.com/talks/JessaGamble_2010G.mp3?apikey=489b859150fc58263f17110eeb44ed5fba4a3b22"}, "related_talks": [{"viewed_count": 9395978, "hero": "https://pe.tedcdn.com/images/ted/1c7b5b4e9425a4bd4b3b51a7c870208ee2fdc5d7_1920x1080.jpg", "title": "Why we love, why we cheat", "id": 16, "speaker": "Helen Fisher", "duration": 1407, "slug": "helen_fisher_tells_us_why_we_love_cheat"}, {"viewed_count": 1005249, "hero": "https://pe.tedcdn.com/images/ted/102955_800x600.jpg", "title": "Skin color is an illusion", "id": 603, "speaker": "Nina Jablonski", "duration": 888, "slug": "nina_jablonski_breaks_the_illusion_of_skin_color"}, {"viewed_count": 14824704, "hero": "https://pe.tedcdn.com/images/ted/016a827cc0757092a0439ab2a63feca8655b6c29_1600x1200.jpg", "title": "The surprising science of happiness", "id": 97, "speaker": "Dan Gilbert", "duration": 1276, "slug": "dan_gilbert_asks_why_are_we_happy"}, {"viewed_count": 6557104, "hero": "https://pe.tedcdn.com/images/ted/44c8a0d9e5982eab342c4151d702004b491e48e7_2880x1620.jpg", "title": "Why do we sleep?", "id": 1810, "speaker": "Russell Foster", "duration": 1306, "slug": "russell_foster_why_do_we_sleep"}, {"viewed_count": 4276334, "hero": "https://pe.tedcdn.com/images/ted/11c7a2a7a0887587e693336eb2ce0eccf807bcc2_1600x1200.jpg", "title": "How to succeed? Get more sleep", "id": 1044, "speaker": "Arianna Huffington", "duration": 250, "slug": "arianna_huffington_how_to_succeed_get_more_sleep"}, {"viewed_count": 1293574, "hero": "https://pe.tedcdn.com/images/ted/e3acf448fa6bcb48cad60eaf10306432a0f5b273_2880x1620.jpg", "title": "Why school should start later for teens", "id": 2783, "speaker": "Wendy Troxel", "duration": 633, "slug": "wendy_troxel_why_school_should_start_later_for_teens"}], "recorded_at": "2010-07-15T00:00:00.000+00:00", "slug": "jessa_gamble_how_to_sleep", "speaker_name": "Jessa Gamble", "viewed_count": 2271319, "event_badge": null, "event_blurb": "This talk was presented at an official TED conference, and was featured by our editors on the home page.", "recommendations": null, "corrections": []}], "event": "TEDGlobal 2010", "name": "Jessa Gamble: Our natural sleep cycle is nothing like what we do now"}'
p140
sS'keywords'
p141
(lp142
Vevolution
p143
aVhumanity
p144
aVpersonal growth
p145
aVscience
p146
aVself
p147
asS'datecrawled'
p148
g135
(S'\x07\xe1\n\x17\x01\x08\x1d\x01Y>'
tRp149
sS'id'
p150
I957
ss.