(dp1
Vdocument_tone
p2
(dp3
Vtone_categories
p4
(lp5
(dp6
Vcategory_id
p7
Vemotion_tone
p8
sVtones
p9
(lp10
(dp11
Vtone_name
p12
VAnger
p13
sVscore
p14
F0.077369999999999994
sVtone_id
p15
Vanger
p16
sa(dp17
Vtone_name
p18
VDisgust
p19
sVscore
p20
F0.038085000000000001
sVtone_id
p21
Vdisgust
p22
sa(dp23
Vtone_name
p24
VFear
p25
sVscore
p26
F0.58784800000000004
sVtone_id
p27
Vfear
p28
sa(dp29
Vtone_name
p30
VJoy
p31
sVscore
p32
F0.048341000000000002
sVtone_id
p33
Vjoy
p34
sa(dp35
Vtone_name
p36
VSadness
p37
sVscore
p38
F0.26973200000000003
sVtone_id
p39
Vsadness
p40
sasVcategory_name
p41
VEmotion Tone
p42
sa(dp43
Vcategory_id
p44
Vlanguage_tone
p45
sVtones
p46
(lp47
(dp48
Vtone_name
p49
VAnalytical
p50
sVscore
p51
F0
sVtone_id
p52
Vanalytical
p53
sa(dp54
Vtone_name
p55
VConfident
p56
sVscore
p57
F0
sVtone_id
p58
Vconfident
p59
sa(dp60
Vtone_name
p61
VTentative
p62
sVscore
p63
F0.89622199999999996
sVtone_id
p64
Vtentative
p65
sasVcategory_name
p66
VLanguage Tone
p67
sa(dp68
Vcategory_id
p69
Vsocial_tone
p70
sVtones
p71
(lp72
(dp73
Vtone_name
p74
VOpenness
p75
sVscore
p76
F0.394706
sVtone_id
p77
Vopenness_big5
p78
sa(dp79
Vtone_name
p80
VConscientiousness
p81
sVscore
p82
F0.024303999999999999
sVtone_id
p83
Vconscientiousness_big5
p84
sa(dp85
Vtone_name
p86
VExtraversion
p87
sVscore
p88
F0.095759999999999998
sVtone_id
p89
Vextraversion_big5
p90
sa(dp91
Vtone_name
p92
VAgreeableness
p93
sVscore
p94
F0.93547100000000005
sVtone_id
p95
Vagreeableness_big5
p96
sa(dp97
Vtone_name
p98
VEmotional Range
p99
sVscore
p100
F0.010659
sVtone_id
p101
Vemotional_range_big5
p102
sasVcategory_name
p103
VSocial Tone
p104
sassVsentences_tone
p105
(lp106
(dp107
Vinput_to
p108
I1603
sVtext
p109
VThey stood together   under a tree in tall grass   on TV   telling the world   their story   We will be left to wander   and fade away   Soldiers came and took our husbands   at the break of day   We will live on   then fade away   Soldiers came and killed our children   at the break of day   Women of hope   Women of change   Women of war and pain   I believe   I believe the almighty knows each and every one of you   by your name   Women of hope   Women of change   Women of love, joy, no shame   You've got something this little life   can never take away   Running through the darkness of night   with a child by her side   Oh Lord, won't you give them   a shining armor of light   Oh Lord, won't you give them   a shining armor of light   Daybreak brings a sign of new life   with the power to stand   Crossing the border   she said, "You will grow free on this land"   Women of hope   Women of change   Women of war and pain   I can feel your power   in these words she said   If you're feeling helpless   help someone   If you're feeling helpless   help someone   Nobody really knows   how far they will go   to keep on living   Nobody really knows   how far they will go   to keep on giving   and forgiving   Aung San Suu Kyi   living under house arrest   for her peaceful protest   under house arrest   for her peaceful protest   When her people asked her for a message   she said   If you're feeling helpless   help someone   If you're feeling helpless   help someone   If you're feeling helpless   help someone   If you're feeling helpless   help someone  Now we know the words, let's sing.
p110
sVsentence_id
p111
I0
sVtone_categories
p112
(lp113
(dp114
Vcategory_id
p115
Vemotion_tone
p116
sVtones
p117
(lp118
(dp119
Vtone_name
p120
VAnger
p121
sVscore
p122
F0.111207
sVtone_id
p123
Vanger
p124
sa(dp125
Vtone_name
p126
VDisgust
p127
sVscore
p128
F0.12728900000000001
sVtone_id
p129
Vdisgust
p130
sa(dp131
Vtone_name
p132
VFear
p133
sVscore
p134
F0.46375300000000003
sVtone_id
p135
Vfear
p136
sa(dp137
Vtone_name
p138
VJoy
p139
sVscore
p140
F0.012517
sVtone_id
p141
Vjoy
p142
sa(dp143
Vtone_name
p144
VSadness
p145
sVscore
p146
F0.30775799999999998
sVtone_id
p147
Vsadness
p148
sasVcategory_name
p149
VEmotion Tone
p150
sa(dp151
Vcategory_id
p152
Vlanguage_tone
p153
sVtones
p154
(lp155
(dp156
Vtone_name
p157
VAnalytical
p158
sVscore
p159
F0
sVtone_id
p160
Vanalytical
p161
sa(dp162
Vtone_name
p163
VConfident
p164
sVscore
p165
F0
sVtone_id
p166
Vconfident
p167
sa(dp168
Vtone_name
p169
VTentative
p170
sVscore
p171
F0.372643
sVtone_id
p172
Vtentative
p173
sasVcategory_name
p174
VLanguage Tone
p175
sa(dp176
Vcategory_id
p177
Vsocial_tone
p178
sVtones
p179
(lp180
(dp181
Vtone_name
p182
VOpenness
p183
sVscore
p184
F0.54257500000000003
sVtone_id
p185
Vopenness_big5
p186
sa(dp187
Vtone_name
p188
VConscientiousness
p189
sVscore
p190
F0.22545499999999999
sVtone_id
p191
Vconscientiousness_big5
p192
sa(dp193
Vtone_name
p194
VExtraversion
p195
sVscore
p196
F0.13905400000000001
sVtone_id
p197
Vextraversion_big5
p198
sa(dp199
Vtone_name
p200
VAgreeableness
p201
sVscore
p202
F0.96209800000000001
sVtone_id
p203
Vagreeableness_big5
p204
sa(dp205
Vtone_name
p206
VEmotional Range
p207
sVscore
p208
F0.103436
sVtone_id
p209
Vemotional_range_big5
p210
sasVcategory_name
p211
VSocial Tone
p212
sasVinput_from
p213
I0
sa(dp214
Vinput_to
p215
I1931
sVtext
p216
VIf you're feeling helpless   help someone   If you're feeling helpless   help someone   If you're feeling helpless   help someone   If you're feeling helpless   help someone   People of hope   People of change   People of love, joy, no shame   I believe the almighty   knows each and every one of you   by your name  Thank you.
p217
sVsentence_id
p218
I1
sVtone_categories
p219
(lp220
(dp221
Vcategory_id
p222
Vemotion_tone
p223
sVtones
p224
(lp225
(dp226
Vtone_name
p227
VAnger
p228
sVscore
p229
F0.063852000000000006
sVtone_id
p230
Vanger
p231
sa(dp232
Vtone_name
p233
VDisgust
p234
sVscore
p235
F0.065515000000000004
sVtone_id
p236
Vdisgust
p237
sa(dp238
Vtone_name
p239
VFear
p240
sVscore
p241
F0.174456
sVtone_id
p242
Vfear
p243
sa(dp244
Vtone_name
p245
VJoy
p246
sVscore
p247
F0.26419999999999999
sVtone_id
p248
Vjoy
p249
sa(dp250
Vtone_name
p251
VSadness
p252
sVscore
p253
F0.44295499999999999
sVtone_id
p254
Vsadness
p255
sasVcategory_name
p256
VEmotion Tone
p257
sa(dp258
Vcategory_id
p259
Vlanguage_tone
p260
sVtones
p261
(lp262
(dp263
Vtone_name
p264
VAnalytical
p265
sVscore
p266
F0
sVtone_id
p267
Vanalytical
p268
sa(dp269
Vtone_name
p270
VConfident
p271
sVscore
p272
F0
sVtone_id
p273
Vconfident
p274
sa(dp275
Vtone_name
p276
VTentative
p277
sVscore
p278
F0.808199
sVtone_id
p279
Vtentative
p280
sasVcategory_name
p281
VLanguage Tone
p282
sa(dp283
Vcategory_id
p284
Vsocial_tone
p285
sVtones
p286
(lp287
(dp288
Vtone_name
p289
VOpenness
p290
sVscore
p291
F0.18592900000000001
sVtone_id
p292
Vopenness_big5
p293
sa(dp294
Vtone_name
p295
VConscientiousness
p296
sVscore
p297
F0.0040200000000000001
sVtone_id
p298
Vconscientiousness_big5
p299
sa(dp300
Vtone_name
p301
VExtraversion
p302
sVscore
p303
F0.23941699999999999
sVtone_id
p304
Vextraversion_big5
p305
sa(dp306
Vtone_name
p307
VAgreeableness
p308
sVscore
p309
F0.84358699999999998
sVtone_id
p310
Vagreeableness_big5
p311
sa(dp312
Vtone_name
p313
VEmotional Range
p314
sVscore
p315
F1.9999999999999999e-06
sVtone_id
p316
Vemotional_range_big5
p317
sasVcategory_name
p318
VSocial Tone
p319
sasVinput_from
p320
I1604
sas.