(dp1
Vdocument_tone
p2
(dp3
Vtone_categories
p4
(lp5
(dp6
Vcategory_id
p7
Vemotion_tone
p8
sVtones
p9
(lp10
(dp11
Vtone_name
p12
VAnger
p13
sVscore
p14
F0
sVtone_id
p15
Vanger
p16
sa(dp17
Vtone_name
p18
VDisgust
p19
sVscore
p20
F0
sVtone_id
p21
Vdisgust
p22
sa(dp23
Vtone_name
p24
VFear
p25
sVscore
p26
F0
sVtone_id
p27
Vfear
p28
sa(dp29
Vtone_name
p30
VJoy
p31
sVscore
p32
F0
sVtone_id
p33
Vjoy
p34
sa(dp35
Vtone_name
p36
VSadness
p37
sVscore
p38
F0
sVtone_id
p39
Vsadness
p40
sasVcategory_name
p41
VEmotion Tone
p42
sa(dp43
Vcategory_id
p44
Vlanguage_tone
p45
sVtones
p46
(lp47
(dp48
Vtone_name
p49
VAnalytical
p50
sVscore
p51
F0
sVtone_id
p52
Vanalytical
p53
sa(dp54
Vtone_name
p55
VConfident
p56
sVscore
p57
F0
sVtone_id
p58
Vconfident
p59
sa(dp60
Vtone_name
p61
VTentative
p62
sVscore
p63
F0
sVtone_id
p64
Vtentative
p65
sasVcategory_name
p66
VLanguage Tone
p67
sa(dp68
Vcategory_id
p69
Vsocial_tone
p70
sVtones
p71
(lp72
(dp73
Vtone_name
p74
VOpenness
p75
sVscore
p76
F0
sVtone_id
p77
Vopenness_big5
p78
sa(dp79
Vtone_name
p80
VConscientiousness
p81
sVscore
p82
F0
sVtone_id
p83
Vconscientiousness_big5
p84
sa(dp85
Vtone_name
p86
VExtraversion
p87
sVscore
p88
F0
sVtone_id
p89
Vextraversion_big5
p90
sa(dp91
Vtone_name
p92
VAgreeableness
p93
sVscore
p94
F0
sVtone_id
p95
Vagreeableness_big5
p96
sa(dp97
Vtone_name
p98
VEmotional Range
p99
sVscore
p100
F0
sVtone_id
p101
Vemotional_range_big5
p102
sasVcategory_name
p103
VSocial Tone
p104
sass.