(dp1
Vdocument_tone
p2
(dp3
Vtone_categories
p4
(lp5
(dp6
Vcategory_id
p7
Vemotion_tone
p8
sVtones
p9
(lp10
(dp11
Vtone_name
p12
VAnger
p13
sVscore
p14
F0.10909099999999999
sVtone_id
p15
Vanger
p16
sa(dp17
Vtone_name
p18
VDisgust
p19
sVscore
p20
F0.091511999999999996
sVtone_id
p21
Vdisgust
p22
sa(dp23
Vtone_name
p24
VFear
p25
sVscore
p26
F0.12024799999999999
sVtone_id
p27
Vfear
p28
sa(dp29
Vtone_name
p30
VJoy
p31
sVscore
p32
F0.530613
sVtone_id
p33
Vjoy
p34
sa(dp35
Vtone_name
p36
VSadness
p37
sVscore
p38
F0.50221000000000005
sVtone_id
p39
Vsadness
p40
sasVcategory_name
p41
VEmotion Tone
p42
sa(dp43
Vcategory_id
p44
Vlanguage_tone
p45
sVtones
p46
(lp47
(dp48
Vtone_name
p49
VAnalytical
p50
sVscore
p51
F0
sVtone_id
p52
Vanalytical
p53
sa(dp54
Vtone_name
p55
VConfident
p56
sVscore
p57
F0
sVtone_id
p58
Vconfident
p59
sa(dp60
Vtone_name
p61
VTentative
p62
sVscore
p63
F0.91071100000000005
sVtone_id
p64
Vtentative
p65
sasVcategory_name
p66
VLanguage Tone
p67
sa(dp68
Vcategory_id
p69
Vsocial_tone
p70
sVtones
p71
(lp72
(dp73
Vtone_name
p74
VOpenness
p75
sVscore
p76
F0.39685599999999999
sVtone_id
p77
Vopenness_big5
p78
sa(dp79
Vtone_name
p80
VConscientiousness
p81
sVscore
p82
F0.045598
sVtone_id
p83
Vconscientiousness_big5
p84
sa(dp85
Vtone_name
p86
VExtraversion
p87
sVscore
p88
F0.20497399999999999
sVtone_id
p89
Vextraversion_big5
p90
sa(dp91
Vtone_name
p92
VAgreeableness
p93
sVscore
p94
F0.90713900000000003
sVtone_id
p95
Vagreeableness_big5
p96
sa(dp97
Vtone_name
p98
VEmotional Range
p99
sVscore
p100
F0.017387
sVtone_id
p101
Vemotional_range_big5
p102
sasVcategory_name
p103
VSocial Tone
p104
sassVsentences_tone
p105
(lp106
(dp107
Vinput_to
p108
I1264
sVtext
p109
V(Guitar music) I was just thinking that I have been missing you way too long There's something inside this weary head that wants us to love just instead But I was just thinking, merely thinking I've got loads of pictures, I've got the one of you in that dancing dress But man I feel silly in that dim light Just after doing you by the sight of my Kodak delights, I am sinking, merely sinking I think about long distance rates instead of kissing you babe I'm a singer without a song If I wait for you longer my affection is stronger and I ... I was just thinking, merely thinking that this boat is sinking I'm tired of postcards, especially the ones with cute dogs and cupids I'm tired of calling you and missing you and dreaming I slept with you Don't get me wrong I still desperately love you inside this weary head I just want us to love just instead But I was just thinking and thinking, merely thinking I think about long distance rates instead of kissing you babe and time is running me still If I wait for you longer my affection is stronger I ... I was just thinking I ... I was just thinking that I'm tired of calling you once a week thinking of long distance rates instead of kissing you So baby I'm sinking, merely sinking (Guitar music ends)  Thank you.
p110
sVsentence_id
p111
I0
sVtone_categories
p112
(lp113
(dp114
Vcategory_id
p115
Vemotion_tone
p116
sVtones
p117
(lp118
(dp119
Vtone_name
p120
VAnger
p121
sVscore
p122
F0.065530000000000005
sVtone_id
p123
Vanger
p124
sa(dp125
Vtone_name
p126
VDisgust
p127
sVscore
p128
F0.005195
sVtone_id
p129
Vdisgust
p130
sa(dp131
Vtone_name
p132
VFear
p133
sVscore
p134
F0.023390000000000001
sVtone_id
p135
Vfear
p136
sa(dp137
Vtone_name
p138
VJoy
p139
sVscore
p140
F0.73551599999999995
sVtone_id
p141
Vjoy
p142
sa(dp143
Vtone_name
p144
VSadness
p145
sVscore
p146
F0.216281
sVtone_id
p147
Vsadness
p148
sasVcategory_name
p149
VEmotion Tone
p150
sa(dp151
Vcategory_id
p152
Vlanguage_tone
p153
sVtones
p154
(lp155
(dp156
Vtone_name
p157
VAnalytical
p158
sVscore
p159
F0
sVtone_id
p160
Vanalytical
p161
sa(dp162
Vtone_name
p163
VConfident
p164
sVscore
p165
F0
sVtone_id
p166
Vconfident
p167
sa(dp168
Vtone_name
p169
VTentative
p170
sVscore
p171
F0.46232000000000001
sVtone_id
p172
Vtentative
p173
sasVcategory_name
p174
VLanguage Tone
p175
sa(dp176
Vcategory_id
p177
Vsocial_tone
p178
sVtones
p179
(lp180
(dp181
Vtone_name
p182
VOpenness
p183
sVscore
p184
F0.63950600000000002
sVtone_id
p185
Vopenness_big5
p186
sa(dp187
Vtone_name
p188
VConscientiousness
p189
sVscore
p190
F0.00096699999999999998
sVtone_id
p191
Vconscientiousness_big5
p192
sa(dp193
Vtone_name
p194
VExtraversion
p195
sVscore
p196
F0.10768899999999999
sVtone_id
p197
Vextraversion_big5
p198
sa(dp199
Vtone_name
p200
VAgreeableness
p201
sVscore
p202
F0.89304700000000004
sVtone_id
p203
Vagreeableness_big5
p204
sa(dp205
Vtone_name
p206
VEmotional Range
p207
sVscore
p208
F5.5000000000000002e-05
sVtone_id
p209
Vemotional_range_big5
p210
sasVcategory_name
p211
VSocial Tone
p212
sasVinput_from
p213
I0
sa(dp214
Vinput_to
p215
I1284
sVtext
p216
VSinging is sharing.
p217
sVsentence_id
p218
I1
sVtone_categories
p219
(lp220
(dp221
Vcategory_id
p222
Vemotion_tone
p223
sVtones
p224
(lp225
(dp226
Vtone_name
p227
VAnger
p228
sVscore
p229
F0.065616999999999995
sVtone_id
p230
Vanger
p231
sa(dp232
Vtone_name
p233
VDisgust
p234
sVscore
p235
F0.13971900000000001
sVtone_id
p236
Vdisgust
p237
sa(dp238
Vtone_name
p239
VFear
p240
sVscore
p241
F0.088652999999999996
sVtone_id
p242
Vfear
p243
sa(dp244
Vtone_name
p245
VJoy
p246
sVscore
p247
F0.68651099999999998
sVtone_id
p248
Vjoy
p249
sa(dp250
Vtone_name
p251
VSadness
p252
sVscore
p253
F0.092962000000000003
sVtone_id
p254
Vsadness
p255
sasVcategory_name
p256
VEmotion Tone
p257
sa(dp258
Vcategory_id
p259
Vlanguage_tone
p260
sVtones
p261
(lp262
(dp263
Vtone_name
p264
VAnalytical
p265
sVscore
p266
F0
sVtone_id
p267
Vanalytical
p268
sa(dp269
Vtone_name
p270
VConfident
p271
sVscore
p272
F0
sVtone_id
p273
Vconfident
p274
sa(dp275
Vtone_name
p276
VTentative
p277
sVscore
p278
F0
sVtone_id
p279
Vtentative
p280
sasVcategory_name
p281
VLanguage Tone
p282
sa(dp283
Vcategory_id
p284
Vsocial_tone
p285
sVtones
p286
(lp287
(dp288
Vtone_name
p289
VOpenness
p290
sVscore
p291
F0.42203299999999999
sVtone_id
p292
Vopenness_big5
p293
sa(dp294
Vtone_name
p295
VConscientiousness
p296
sVscore
p297
F0.27338400000000002
sVtone_id
p298
Vconscientiousness_big5
p299
sa(dp300
Vtone_name
p301
VExtraversion
p302
sVscore
p303
F0.55548600000000004
sVtone_id
p304
Vextraversion_big5
p305
sa(dp306
Vtone_name
p307
VAgreeableness
p308
sVscore
p309
F0.60533400000000004
sVtone_id
p310
Vagreeableness_big5
p311
sa(dp312
Vtone_name
p313
VEmotional Range
p314
sVscore
p315
F0.25209500000000001
sVtone_id
p316
Vemotional_range_big5
p317
sasVcategory_name
p318
VSocial Tone
p319
sasVinput_from
p320
I1265
sa(dp321
Vinput_to
p322
I1438
sVtext
p323
VWhen you sing, you have to know what you're talking about intimately, and you have to be willing to share this insight and give away a piece of yourself.
p324
sVsentence_id
p325
I2
sVtone_categories
p326
(lp327
(dp328
Vcategory_id
p329
Vemotion_tone
p330
sVtones
p331
(lp332
(dp333
Vtone_name
p334
VAnger
p335
sVscore
p336
F0.099497000000000002
sVtone_id
p337
Vanger
p338
sa(dp339
Vtone_name
p340
VDisgust
p341
sVscore
p342
F0.074871999999999994
sVtone_id
p343
Vdisgust
p344
sa(dp345
Vtone_name
p346
VFear
p347
sVscore
p348
F0.077558000000000002
sVtone_id
p349
Vfear
p350
sa(dp351
Vtone_name
p352
VJoy
p353
sVscore
p354
F0.54956799999999995
sVtone_id
p355
Vjoy
p356
sa(dp357
Vtone_name
p358
VSadness
p359
sVscore
p360
F0.23145399999999999
sVtone_id
p361
Vsadness
p362
sasVcategory_name
p363
VEmotion Tone
p364
sa(dp365
Vcategory_id
p366
Vlanguage_tone
p367
sVtones
p368
(lp369
(dp370
Vtone_name
p371
VAnalytical
p372
sVscore
p373
F0.78477300000000005
sVtone_id
p374
Vanalytical
p375
sa(dp376
Vtone_name
p377
VConfident
p378
sVscore
p379
F0
sVtone_id
p380
Vconfident
p381
sa(dp382
Vtone_name
p383
VTentative
p384
sVscore
p385
F0.57374000000000003
sVtone_id
p386
Vtentative
p387
sasVcategory_name
p388
VLanguage Tone
p389
sa(dp390
Vcategory_id
p391
Vsocial_tone
p392
sVtones
p393
(lp394
(dp395
Vtone_name
p396
VOpenness
p397
sVscore
p398
F0.62737399999999999
sVtone_id
p399
Vopenness_big5
p400
sa(dp401
Vtone_name
p402
VConscientiousness
p403
sVscore
p404
F0.87427999999999995
sVtone_id
p405
Vconscientiousness_big5
p406
sa(dp407
Vtone_name
p408
VExtraversion
p409
sVscore
p410
F0.78094699999999995
sVtone_id
p411
Vextraversion_big5
p412
sa(dp413
Vtone_name
p414
VAgreeableness
p415
sVscore
p416
F0.99709400000000004
sVtone_id
p417
Vagreeableness_big5
p418
sa(dp419
Vtone_name
p420
VEmotional Range
p421
sVscore
p422
F0.45834000000000003
sVtone_id
p423
Vemotional_range_big5
p424
sasVcategory_name
p425
VSocial Tone
p426
sasVinput_from
p427
I1285
sa(dp428
Vinput_to
p429
I1597
sVtext
p430
VI look for this intention to share in everything, and I ask: what are the intentions behind this architecture or this product or this restaurant or this meal?
p431
sVsentence_id
p432
I3
sVtone_categories
p433
(lp434
(dp435
Vcategory_id
p436
Vemotion_tone
p437
sVtones
p438
(lp439
(dp440
Vtone_name
p441
VAnger
p442
sVscore
p443
F0.15093799999999999
sVtone_id
p444
Vanger
p445
sa(dp446
Vtone_name
p447
VDisgust
p448
sVscore
p449
F0.03058
sVtone_id
p450
Vdisgust
p451
sa(dp452
Vtone_name
p453
VFear
p454
sVscore
p455
F0.267038
sVtone_id
p456
Vfear
p457
sa(dp458
Vtone_name
p459
VJoy
p460
sVscore
p461
F0.436753
sVtone_id
p462
Vjoy
p463
sa(dp464
Vtone_name
p465
VSadness
p466
sVscore
p467
F0.19741400000000001
sVtone_id
p468
Vsadness
p469
sasVcategory_name
p470
VEmotion Tone
p471
sa(dp472
Vcategory_id
p473
Vlanguage_tone
p474
sVtones
p475
(lp476
(dp477
Vtone_name
p478
VAnalytical
p479
sVscore
p480
F0.65988599999999997
sVtone_id
p481
Vanalytical
p482
sa(dp483
Vtone_name
p484
VConfident
p485
sVscore
p486
F0
sVtone_id
p487
Vconfident
p488
sa(dp489
Vtone_name
p490
VTentative
p491
sVscore
p492
F0.55379999999999996
sVtone_id
p493
Vtentative
p494
sasVcategory_name
p495
VLanguage Tone
p496
sa(dp497
Vcategory_id
p498
Vsocial_tone
p499
sVtones
p500
(lp501
(dp502
Vtone_name
p503
VOpenness
p504
sVscore
p505
F0.91087200000000001
sVtone_id
p506
Vopenness_big5
p507
sa(dp508
Vtone_name
p509
VConscientiousness
p510
sVscore
p511
F0.93628400000000001
sVtone_id
p512
Vconscientiousness_big5
p513
sa(dp514
Vtone_name
p515
VExtraversion
p516
sVscore
p517
F0.91781500000000005
sVtone_id
p518
Vextraversion_big5
p519
sa(dp520
Vtone_name
p521
VAgreeableness
p522
sVscore
p523
F0.56267500000000004
sVtone_id
p524
Vagreeableness_big5
p525
sa(dp526
Vtone_name
p527
VEmotional Range
p528
sVscore
p529
F0.52168300000000001
sVtone_id
p530
Vemotional_range_big5
p531
sasVcategory_name
p532
VSocial Tone
p533
sasVinput_from
p534
I1439
sa(dp535
Vinput_to
p536
I1714
sVtext
p537
VAnd if your intentions are to impress people or to get the big applause at the end, then you are taking, not giving.
p538
sVsentence_id
p539
I4
sVtone_categories
p540
(lp541
(dp542
Vcategory_id
p543
Vemotion_tone
p544
sVtones
p545
(lp546
(dp547
Vtone_name
p548
VAnger
p549
sVscore
p550
F0.046218000000000002
sVtone_id
p551
Vanger
p552
sa(dp553
Vtone_name
p554
VDisgust
p555
sVscore
p556
F0.23649300000000001
sVtone_id
p557
Vdisgust
p558
sa(dp559
Vtone_name
p560
VFear
p561
sVscore
p562
F0.22364899999999999
sVtone_id
p563
Vfear
p564
sa(dp565
Vtone_name
p566
VJoy
p567
sVscore
p568
F0.123393
sVtone_id
p569
Vjoy
p570
sa(dp571
Vtone_name
p572
VSadness
p573
sVscore
p574
F0.45517600000000003
sVtone_id
p575
Vsadness
p576
sasVcategory_name
p577
VEmotion Tone
p578
sa(dp579
Vcategory_id
p580
Vlanguage_tone
p581
sVtones
p582
(lp583
(dp584
Vtone_name
p585
VAnalytical
p586
sVscore
p587
F0.148037
sVtone_id
p588
Vanalytical
p589
sa(dp590
Vtone_name
p591
VConfident
p592
sVscore
p593
F0.560944
sVtone_id
p594
Vconfident
p595
sa(dp596
Vtone_name
p597
VTentative
p598
sVscore
p599
F0
sVtone_id
p600
Vtentative
p601
sasVcategory_name
p602
VLanguage Tone
p603
sa(dp604
Vcategory_id
p605
Vsocial_tone
p606
sVtones
p607
(lp608
(dp609
Vtone_name
p610
VOpenness
p611
sVscore
p612
F0.47931699999999999
sVtone_id
p613
Vopenness_big5
p614
sa(dp615
Vtone_name
p616
VConscientiousness
p617
sVscore
p618
F0.78461800000000004
sVtone_id
p619
Vconscientiousness_big5
p620
sa(dp621
Vtone_name
p622
VExtraversion
p623
sVscore
p624
F0.87112900000000004
sVtone_id
p625
Vextraversion_big5
p626
sa(dp627
Vtone_name
p628
VAgreeableness
p629
sVscore
p630
F0.266878
sVtone_id
p631
Vagreeableness_big5
p632
sa(dp633
Vtone_name
p634
VEmotional Range
p635
sVscore
p636
F0.71092999999999995
sVtone_id
p637
Vemotional_range_big5
p638
sasVcategory_name
p639
VSocial Tone
p640
sasVinput_from
p641
I1598
sa(dp642
Vinput_to
p643
I1806
sVtext
p644
VAnd this is a song that's about - it's the kind of song that everyone has their version of.
p645
sVsentence_id
p646
I5
sVtone_categories
p647
(lp648
(dp649
Vcategory_id
p650
Vemotion_tone
p651
sVtones
p652
(lp653
(dp654
Vtone_name
p655
VAnger
p656
sVscore
p657
F0.075060000000000002
sVtone_id
p658
Vanger
p659
sa(dp660
Vtone_name
p661
VDisgust
p662
sVscore
p663
F0.189468
sVtone_id
p664
Vdisgust
p665
sa(dp666
Vtone_name
p667
VFear
p668
sVscore
p669
F0.142092
sVtone_id
p670
Vfear
p671
sa(dp672
Vtone_name
p673
VJoy
p674
sVscore
p675
F0.31360700000000002
sVtone_id
p676
Vjoy
p677
sa(dp678
Vtone_name
p679
VSadness
p680
sVscore
p681
F0.37655
sVtone_id
p682
Vsadness
p683
sasVcategory_name
p684
VEmotion Tone
p685
sa(dp686
Vcategory_id
p687
Vlanguage_tone
p688
sVtones
p689
(lp690
(dp691
Vtone_name
p692
VAnalytical
p693
sVscore
p694
F0
sVtone_id
p695
Vanalytical
p696
sa(dp697
Vtone_name
p698
VConfident
p699
sVscore
p700
F0
sVtone_id
p701
Vconfident
p702
sa(dp703
Vtone_name
p704
VTentative
p705
sVscore
p706
F0.75151999999999997
sVtone_id
p707
Vtentative
p708
sasVcategory_name
p709
VLanguage Tone
p710
sa(dp711
Vcategory_id
p712
Vsocial_tone
p713
sVtones
p714
(lp715
(dp716
Vtone_name
p717
VOpenness
p718
sVscore
p719
F0.98004800000000003
sVtone_id
p720
Vopenness_big5
p721
sa(dp722
Vtone_name
p723
VConscientiousness
p724
sVscore
p725
F0.082691000000000001
sVtone_id
p726
Vconscientiousness_big5
p727
sa(dp728
Vtone_name
p729
VExtraversion
p730
sVscore
p731
F0.082794000000000006
sVtone_id
p732
Vextraversion_big5
p733
sa(dp734
Vtone_name
p735
VAgreeableness
p736
sVscore
p737
F0.087622000000000005
sVtone_id
p738
Vagreeableness_big5
p739
sa(dp740
Vtone_name
p741
VEmotional Range
p742
sVscore
p743
F0.26332800000000001
sVtone_id
p744
Vemotional_range_big5
p745
sasVcategory_name
p746
VSocial Tone
p747
sasVinput_from
p748
I1715
sa(dp749
Vinput_to
p750
I1915
sVtext
p751
VThis song is called "Home," and it's sort of a "This is where I'm from, nice to meet you all," kind of song.
p752
sVsentence_id
p753
I6
sVtone_categories
p754
(lp755
(dp756
Vcategory_id
p757
Vemotion_tone
p758
sVtones
p759
(lp760
(dp761
Vtone_name
p762
VAnger
p763
sVscore
p764
F0.068246000000000001
sVtone_id
p765
Vanger
p766
sa(dp767
Vtone_name
p768
VDisgust
p769
sVscore
p770
F0.10302600000000001
sVtone_id
p771
Vdisgust
p772
sa(dp773
Vtone_name
p774
VFear
p775
sVscore
p776
F0.21736800000000001
sVtone_id
p777
Vfear
p778
sa(dp779
Vtone_name
p780
VJoy
p781
sVscore
p782
F0.46627600000000002
sVtone_id
p783
Vjoy
p784
sa(dp785
Vtone_name
p786
VSadness
p787
sVscore
p788
F0.25544299999999998
sVtone_id
p789
Vsadness
p790
sasVcategory_name
p791
VEmotion Tone
p792
sa(dp793
Vcategory_id
p794
Vlanguage_tone
p795
sVtones
p796
(lp797
(dp798
Vtone_name
p799
VAnalytical
p800
sVscore
p801
F0
sVtone_id
p802
Vanalytical
p803
sa(dp804
Vtone_name
p805
VConfident
p806
sVscore
p807
F0
sVtone_id
p808
Vconfident
p809
sa(dp810
Vtone_name
p811
VTentative
p812
sVscore
p813
F0.76925100000000002
sVtone_id
p814
Vtentative
p815
sasVcategory_name
p816
VLanguage Tone
p817
sa(dp818
Vcategory_id
p819
Vsocial_tone
p820
sVtones
p821
(lp822
(dp823
Vtone_name
p824
VOpenness
p825
sVscore
p826
F0.80740800000000001
sVtone_id
p827
Vopenness_big5
p828
sa(dp829
Vtone_name
p830
VConscientiousness
p831
sVscore
p832
F0.20697499999999999
sVtone_id
p833
Vconscientiousness_big5
p834
sa(dp835
Vtone_name
p836
VExtraversion
p837
sVscore
p838
F0.15551200000000001
sVtone_id
p839
Vextraversion_big5
p840
sa(dp841
Vtone_name
p842
VAgreeableness
p843
sVscore
p844
F0.75909199999999999
sVtone_id
p845
Vagreeableness_big5
p846
sa(dp847
Vtone_name
p848
VEmotional Range
p849
sVscore
p850
F0.10824400000000001
sVtone_id
p851
Vemotional_range_big5
p852
sasVcategory_name
p853
VSocial Tone
p854
sasVinput_from
p855
I1807
sa(dp856
Vinput_to
p857
I2903
sVtext
p858
V(Piano music) Home is the sound of birds early in the morning Home is a song I've always remembered Home is the memory of my first day in school Home is the books that I carry around Home is an alley in a faraway town Home is the places Ive been and where Id like to go Home I'm always gonna feel at home No matter where I may roam I'm always gonna find my way back home No matter how far Im gone Im always gonna feel this longing No matter where I might stay Home is a feather twirling in the air Home is flowers in a windowsill Home is all the things she said to me Home is a photo I never threw away Home is the smile on my face when I die Home is the taste of an apple pie I met a woman, she always lived in the same place And she said home is where youre born and raised And I met a man, he sat looking out to the sea And he said home is where you want to be I met a girl in some downtown bar And she said I'll have whatever he's having And I asked her how come we never met before?
p859
sVsentence_id
p860
I7
sVtone_categories
p861
(lp862
(dp863
Vcategory_id
p864
Vemotion_tone
p865
sVtones
p866
(lp867
(dp868
Vtone_name
p869
VAnger
p870
sVscore
p871
F0.40344799999999997
sVtone_id
p872
Vanger
p873
sa(dp874
Vtone_name
p875
VDisgust
p876
sVscore
p877
F0.105589
sVtone_id
p878
Vdisgust
p879
sa(dp880
Vtone_name
p881
VFear
p882
sVscore
p883
F0.0579
sVtone_id
p884
Vfear
p885
sa(dp886
Vtone_name
p887
VJoy
p888
sVscore
p889
F0.22745799999999999
sVtone_id
p890
Vjoy
p891
sa(dp892
Vtone_name
p893
VSadness
p894
sVscore
p895
F0.23698
sVtone_id
p896
Vsadness
p897
sasVcategory_name
p898
VEmotion Tone
p899
sa(dp900
Vcategory_id
p901
Vlanguage_tone
p902
sVtones
p903
(lp904
(dp905
Vtone_name
p906
VAnalytical
p907
sVscore
p908
F0.0050600000000000003
sVtone_id
p909
Vanalytical
p910
sa(dp911
Vtone_name
p912
VConfident
p913
sVscore
p914
F0
sVtone_id
p915
Vconfident
p916
sa(dp917
Vtone_name
p918
VTentative
p919
sVscore
p920
F0.41569499999999998
sVtone_id
p921
Vtentative
p922
sasVcategory_name
p923
VLanguage Tone
p924
sa(dp925
Vcategory_id
p926
Vsocial_tone
p927
sVtones
p928
(lp929
(dp930
Vtone_name
p931
VOpenness
p932
sVscore
p933
F0.164466
sVtone_id
p934
Vopenness_big5
p935
sa(dp936
Vtone_name
p937
VConscientiousness
p938
sVscore
p939
F0.47052100000000002
sVtone_id
p940
Vconscientiousness_big5
p941
sa(dp942
Vtone_name
p943
VExtraversion
p944
sVscore
p945
F0.32678600000000002
sVtone_id
p946
Vextraversion_big5
p947
sa(dp948
Vtone_name
p949
VAgreeableness
p950
sVscore
p951
F0.89961199999999997
sVtone_id
p952
Vagreeableness_big5
p953
sa(dp954
Vtone_name
p955
VEmotional Range
p956
sVscore
p957
F0.36375400000000002
sVtone_id
p958
Vemotional_range_big5
p959
sasVcategory_name
p960
VSocial Tone
p961
sasVinput_from
p962
I1916
sa(dp963
Vinput_to
p964
I3183
sVtext
p965
VAnd she said all my life Ive been trying to get a place of my own Im always gonna feel at home No matter where I may roam Always gonna find my way back home No matter how far Im gone I'm always gonna feel this longing No matter where I might stay (Piano music) (Piano music ends)
p966
sVsentence_id
p967
I8
sVtone_categories
p968
(lp969
(dp970
Vcategory_id
p971
Vemotion_tone
p972
sVtones
p973
(lp974
(dp975
Vtone_name
p976
VAnger
p977
sVscore
p978
F0.063371999999999998
sVtone_id
p979
Vanger
p980
sa(dp981
Vtone_name
p982
VDisgust
p983
sVscore
p984
F0.0024589999999999998
sVtone_id
p985
Vdisgust
p986
sa(dp987
Vtone_name
p988
VFear
p989
sVscore
p990
F0.013242
sVtone_id
p991
Vfear
p992
sa(dp993
Vtone_name
p994
VJoy
p995
sVscore
p996
F0.46640100000000001
sVtone_id
p997
Vjoy
p998
sa(dp999
Vtone_name
p1000
VSadness
p1001
sVscore
p1002
F0.53747699999999998
sVtone_id
p1003
Vsadness
p1004
sasVcategory_name
p1005
VEmotion Tone
p1006
sa(dp1007
Vcategory_id
p1008
Vlanguage_tone
p1009
sVtones
p1010
(lp1011
(dp1012
Vtone_name
p1013
VAnalytical
p1014
sVscore
p1015
F0.110371
sVtone_id
p1016
Vanalytical
p1017
sa(dp1018
Vtone_name
p1019
VConfident
p1020
sVscore
p1021
F0
sVtone_id
p1022
Vconfident
p1023
sa(dp1024
Vtone_name
p1025
VTentative
p1026
sVscore
p1027
F0.89388699999999999
sVtone_id
p1028
Vtentative
p1029
sasVcategory_name
p1030
VLanguage Tone
p1031
sa(dp1032
Vcategory_id
p1033
Vsocial_tone
p1034
sVtones
p1035
(lp1036
(dp1037
Vtone_name
p1038
VOpenness
p1039
sVscore
p1040
F0.013533
sVtone_id
p1041
Vopenness_big5
p1042
sa(dp1043
Vtone_name
p1044
VConscientiousness
p1045
sVscore
p1046
F0.029227
sVtone_id
p1047
Vconscientiousness_big5
p1048
sa(dp1049
Vtone_name
p1050
VExtraversion
p1051
sVscore
p1052
F0.073233999999999994
sVtone_id
p1053
Vextraversion_big5
p1054
sa(dp1055
Vtone_name
p1056
VAgreeableness
p1057
sVscore
p1058
F0.64193299999999998
sVtone_id
p1059
Vagreeableness_big5
p1060
sa(dp1061
Vtone_name
p1062
VEmotional Range
p1063
sVscore
p1064
F0.0076730000000000001
sVtone_id
p1065
Vemotional_range_big5
p1066
sasVcategory_name
p1067
VSocial Tone
p1068
sasVinput_from
p1069
I2904
sas.