(dp1
Vdocument_tone
p2
(dp3
Vtone_categories
p4
(lp5
(dp6
Vcategory_id
p7
Vemotion_tone
p8
sVtones
p9
(lp10
(dp11
Vtone_name
p12
VAnger
p13
sVscore
p14
F0.101912
sVtone_id
p15
Vanger
p16
sa(dp17
Vtone_name
p18
VDisgust
p19
sVscore
p20
F0.084748000000000004
sVtone_id
p21
Vdisgust
p22
sa(dp23
Vtone_name
p24
VFear
p25
sVscore
p26
F0.413215
sVtone_id
p27
Vfear
p28
sa(dp29
Vtone_name
p30
VJoy
p31
sVscore
p32
F0.58549600000000002
sVtone_id
p33
Vjoy
p34
sa(dp35
Vtone_name
p36
VSadness
p37
sVscore
p38
F0.25898500000000002
sVtone_id
p39
Vsadness
p40
sasVcategory_name
p41
VEmotion Tone
p42
sa(dp43
Vcategory_id
p44
Vlanguage_tone
p45
sVtones
p46
(lp47
(dp48
Vtone_name
p49
VAnalytical
p50
sVscore
p51
F0.19241800000000001
sVtone_id
p52
Vanalytical
p53
sa(dp54
Vtone_name
p55
VConfident
p56
sVscore
p57
F0.77538099999999999
sVtone_id
p58
Vconfident
p59
sa(dp60
Vtone_name
p61
VTentative
p62
sVscore
p63
F0
sVtone_id
p64
Vtentative
p65
sasVcategory_name
p66
VLanguage Tone
p67
sa(dp68
Vcategory_id
p69
Vsocial_tone
p70
sVtones
p71
(lp72
(dp73
Vtone_name
p74
VOpenness
p75
sVscore
p76
F0.90682700000000005
sVtone_id
p77
Vopenness_big5
p78
sa(dp79
Vtone_name
p80
VConscientiousness
p81
sVscore
p82
F0.96141799999999999
sVtone_id
p83
Vconscientiousness_big5
p84
sa(dp85
Vtone_name
p86
VExtraversion
p87
sVscore
p88
F0.418215
sVtone_id
p89
Vextraversion_big5
p90
sa(dp91
Vtone_name
p92
VAgreeableness
p93
sVscore
p94
F0.91280700000000004
sVtone_id
p95
Vagreeableness_big5
p96
sa(dp97
Vtone_name
p98
VEmotional Range
p99
sVscore
p100
F0.43159900000000001
sVtone_id
p101
Vemotional_range_big5
p102
sasVcategory_name
p103
VSocial Tone
p104
sassVsentences_tone
p105
(lp106
(dp107
Vinput_to
p108
I15
sVtext
p109
VHello everyone.
p110
sVsentence_id
p111
I0
sVtone_categories
p112
(lp113
(dp114
Vcategory_id
p115
Vemotion_tone
p116
sVtones
p117
(lp118
(dp119
Vtone_name
p120
VAnger
p121
sVscore
p122
F0.079726000000000005
sVtone_id
p123
Vanger
p124
sa(dp125
Vtone_name
p126
VDisgust
p127
sVscore
p128
F0.015271
sVtone_id
p129
Vdisgust
p130
sa(dp131
Vtone_name
p132
VFear
p133
sVscore
p134
F0.032608999999999999
sVtone_id
p135
Vfear
p136
sa(dp137
Vtone_name
p138
VJoy
p139
sVscore
p140
F0.87631300000000001
sVtone_id
p141
Vjoy
p142
sa(dp143
Vtone_name
p144
VSadness
p145
sVscore
p146
F0.040590000000000001
sVtone_id
p147
Vsadness
p148
sasVcategory_name
p149
VEmotion Tone
p150
sa(dp151
Vcategory_id
p152
Vlanguage_tone
p153
sVtones
p154
(lp155
(dp156
Vtone_name
p157
VAnalytical
p158
sVscore
p159
F0
sVtone_id
p160
Vanalytical
p161
sa(dp162
Vtone_name
p163
VConfident
p164
sVscore
p165
F0
sVtone_id
p166
Vconfident
p167
sa(dp168
Vtone_name
p169
VTentative
p170
sVscore
p171
F0
sVtone_id
p172
Vtentative
p173
sasVcategory_name
p174
VLanguage Tone
p175
sa(dp176
Vcategory_id
p177
Vsocial_tone
p178
sVtones
p179
(lp180
(dp181
Vtone_name
p182
VOpenness
p183
sVscore
p184
F0.318409
sVtone_id
p185
Vopenness_big5
p186
sa(dp187
Vtone_name
p188
VConscientiousness
p189
sVscore
p190
F0.27510600000000002
sVtone_id
p191
Vconscientiousness_big5
p192
sa(dp193
Vtone_name
p194
VExtraversion
p195
sVscore
p196
F0.54730400000000001
sVtone_id
p197
Vextraversion_big5
p198
sa(dp199
Vtone_name
p200
VAgreeableness
p201
sVscore
p202
F0.60025700000000004
sVtone_id
p203
Vagreeableness_big5
p204
sa(dp205
Vtone_name
p206
VEmotional Range
p207
sVscore
p208
F0.30257499999999998
sVtone_id
p209
Vemotional_range_big5
p210
sasVcategory_name
p211
VSocial Tone
p212
sasVinput_from
p213
I0
sa(dp214
Vinput_to
p215
I81
sVtext
p216
VAnd so the two of us are here to give you an example of creation.
p217
sVsentence_id
p218
I1
sVtone_categories
p219
(lp220
(dp221
Vcategory_id
p222
Vemotion_tone
p223
sVtones
p224
(lp225
(dp226
Vtone_name
p227
VAnger
p228
sVscore
p229
F0.097443000000000002
sVtone_id
p230
Vanger
p231
sa(dp232
Vtone_name
p233
VDisgust
p234
sVscore
p235
F0.25262000000000001
sVtone_id
p236
Vdisgust
p237
sa(dp238
Vtone_name
p239
VFear
p240
sVscore
p241
F0.14866799999999999
sVtone_id
p242
Vfear
p243
sa(dp244
Vtone_name
p245
VJoy
p246
sVscore
p247
F0.37723000000000001
sVtone_id
p248
Vjoy
p249
sa(dp250
Vtone_name
p251
VSadness
p252
sVscore
p253
F0.23777599999999999
sVtone_id
p254
Vsadness
p255
sasVcategory_name
p256
VEmotion Tone
p257
sa(dp258
Vcategory_id
p259
Vlanguage_tone
p260
sVtones
p261
(lp262
(dp263
Vtone_name
p264
VAnalytical
p265
sVscore
p266
F0.53261599999999998
sVtone_id
p267
Vanalytical
p268
sa(dp269
Vtone_name
p270
VConfident
p271
sVscore
p272
F0
sVtone_id
p273
Vconfident
p274
sa(dp275
Vtone_name
p276
VTentative
p277
sVscore
p278
F0
sVtone_id
p279
Vtentative
p280
sasVcategory_name
p281
VLanguage Tone
p282
sa(dp283
Vcategory_id
p284
Vsocial_tone
p285
sVtones
p286
(lp287
(dp288
Vtone_name
p289
VOpenness
p290
sVscore
p291
F0.94206500000000004
sVtone_id
p292
Vopenness_big5
p293
sa(dp294
Vtone_name
p295
VConscientiousness
p296
sVscore
p297
F0.956812
sVtone_id
p298
Vconscientiousness_big5
p299
sa(dp300
Vtone_name
p301
VExtraversion
p302
sVscore
p303
F0.53158799999999995
sVtone_id
p304
Vextraversion_big5
p305
sa(dp306
Vtone_name
p307
VAgreeableness
p308
sVscore
p309
F0.84109800000000001
sVtone_id
p310
Vagreeableness_big5
p311
sa(dp312
Vtone_name
p313
VEmotional Range
p314
sVscore
p315
F0.556064
sVtone_id
p316
Vemotional_range_big5
p317
sasVcategory_name
p318
VSocial Tone
p319
sasVinput_from
p320
I16
sa(dp321
Vinput_to
p322
I138
sVtext
p323
VAnd I'm going to be folding one of Robert Lang's models.
p324
sVsentence_id
p325
I2
sVtone_categories
p326
(lp327
(dp328
Vcategory_id
p329
Vemotion_tone
p330
sVtones
p331
(lp332
(dp333
Vtone_name
p334
VAnger
p335
sVscore
p336
F0.109456
sVtone_id
p337
Vanger
p338
sa(dp339
Vtone_name
p340
VDisgust
p341
sVscore
p342
F0.15996199999999999
sVtone_id
p343
Vdisgust
p344
sa(dp345
Vtone_name
p346
VFear
p347
sVscore
p348
F0.16536600000000001
sVtone_id
p349
Vfear
p350
sa(dp351
Vtone_name
p352
VJoy
p353
sVscore
p354
F0.30184800000000001
sVtone_id
p355
Vjoy
p356
sa(dp357
Vtone_name
p358
VSadness
p359
sVscore
p360
F0.34688200000000002
sVtone_id
p361
Vsadness
p362
sasVcategory_name
p363
VEmotion Tone
p364
sa(dp365
Vcategory_id
p366
Vlanguage_tone
p367
sVtones
p368
(lp369
(dp370
Vtone_name
p371
VAnalytical
p372
sVscore
p373
F0
sVtone_id
p374
Vanalytical
p375
sa(dp376
Vtone_name
p377
VConfident
p378
sVscore
p379
F0
sVtone_id
p380
Vconfident
p381
sa(dp382
Vtone_name
p383
VTentative
p384
sVscore
p385
F0
sVtone_id
p386
Vtentative
p387
sasVcategory_name
p388
VLanguage Tone
p389
sa(dp390
Vcategory_id
p391
Vsocial_tone
p392
sVtones
p393
(lp394
(dp395
Vtone_name
p396
VOpenness
p397
sVscore
p398
F0.76383999999999996
sVtone_id
p399
Vopenness_big5
p400
sa(dp401
Vtone_name
p402
VConscientiousness
p403
sVscore
p404
F0.14213799999999999
sVtone_id
p405
Vconscientiousness_big5
p406
sa(dp407
Vtone_name
p408
VExtraversion
p409
sVscore
p410
F0.57652400000000004
sVtone_id
p411
Vextraversion_big5
p412
sa(dp413
Vtone_name
p414
VAgreeableness
p415
sVscore
p416
F0.31520999999999999
sVtone_id
p417
Vagreeableness_big5
p418
sa(dp419
Vtone_name
p420
VEmotional Range
p421
sVscore
p422
F0.0088990000000000007
sVtone_id
p423
Vemotional_range_big5
p424
sasVcategory_name
p425
VSocial Tone
p426
sasVinput_from
p427
I82
sa(dp428
Vinput_to
p429
I248
sVtext
p430
VAnd this is the piece of paper it will be made from, and you can see all of the folds that are needed for it.
p431
sVsentence_id
p432
I3
sVtone_categories
p433
(lp434
(dp435
Vcategory_id
p436
Vemotion_tone
p437
sVtones
p438
(lp439
(dp440
Vtone_name
p441
VAnger
p442
sVscore
p443
F0.25129899999999999
sVtone_id
p444
Vanger
p445
sa(dp446
Vtone_name
p447
VDisgust
p448
sVscore
p449
F0.16244
sVtone_id
p450
Vdisgust
p451
sa(dp452
Vtone_name
p453
VFear
p454
sVscore
p455
F0.073829000000000006
sVtone_id
p456
Vfear
p457
sa(dp458
Vtone_name
p459
VJoy
p460
sVscore
p461
F0.23236999999999999
sVtone_id
p462
Vjoy
p463
sa(dp464
Vtone_name
p465
VSadness
p466
sVscore
p467
F0.358954
sVtone_id
p468
Vsadness
p469
sasVcategory_name
p470
VEmotion Tone
p471
sa(dp472
Vcategory_id
p473
Vlanguage_tone
p474
sVtones
p475
(lp476
(dp477
Vtone_name
p478
VAnalytical
p479
sVscore
p480
F0.332951
sVtone_id
p481
Vanalytical
p482
sa(dp483
Vtone_name
p484
VConfident
p485
sVscore
p486
F0.525926
sVtone_id
p487
Vconfident
p488
sa(dp489
Vtone_name
p490
VTentative
p491
sVscore
p492
F0
sVtone_id
p493
Vtentative
p494
sasVcategory_name
p495
VLanguage Tone
p496
sa(dp497
Vcategory_id
p498
Vsocial_tone
p499
sVtones
p500
(lp501
(dp502
Vtone_name
p503
VOpenness
p504
sVscore
p505
F0.99415699999999996
sVtone_id
p506
Vopenness_big5
p507
sa(dp508
Vtone_name
p509
VConscientiousness
p510
sVscore
p511
F0.99955000000000005
sVtone_id
p512
Vconscientiousness_big5
p513
sa(dp514
Vtone_name
p515
VExtraversion
p516
sVscore
p517
F0.326324
sVtone_id
p518
Vextraversion_big5
p519
sa(dp520
Vtone_name
p521
VAgreeableness
p522
sVscore
p523
F0.79025900000000004
sVtone_id
p524
Vagreeableness_big5
p525
sa(dp526
Vtone_name
p527
VEmotional Range
p528
sVscore
p529
F0.78180499999999997
sVtone_id
p530
Vemotional_range_big5
p531
sasVcategory_name
p532
VSocial Tone
p533
sasVinput_from
p534
I139
sa(dp535
Vinput_to
p536
I382
sVtext
p537
VAnd Rufus is going to be doing some improvisation on his custom, five-string electric cello, and it's very exciting to listen to him.
p538
sVsentence_id
p539
I4
sVtone_categories
p540
(lp541
(dp542
Vcategory_id
p543
Vemotion_tone
p544
sVtones
p545
(lp546
(dp547
Vtone_name
p548
VAnger
p549
sVscore
p550
F0.052769999999999997
sVtone_id
p551
Vanger
p552
sa(dp553
Vtone_name
p554
VDisgust
p555
sVscore
p556
F0.031898999999999997
sVtone_id
p557
Vdisgust
p558
sa(dp559
Vtone_name
p560
VFear
p561
sVscore
p562
F0.025225999999999998
sVtone_id
p563
Vfear
p564
sa(dp565
Vtone_name
p566
VJoy
p567
sVscore
p568
F0.58821900000000005
sVtone_id
p569
Vjoy
p570
sa(dp571
Vtone_name
p572
VSadness
p573
sVscore
p574
F0.364456
sVtone_id
p575
Vsadness
p576
sasVcategory_name
p577
VEmotion Tone
p578
sa(dp579
Vcategory_id
p580
Vlanguage_tone
p581
sVtones
p582
(lp583
(dp584
Vtone_name
p585
VAnalytical
p586
sVscore
p587
F0
sVtone_id
p588
Vanalytical
p589
sa(dp590
Vtone_name
p591
VConfident
p592
sVscore
p593
F0
sVtone_id
p594
Vconfident
p595
sa(dp596
Vtone_name
p597
VTentative
p598
sVscore
p599
F0
sVtone_id
p600
Vtentative
p601
sasVcategory_name
p602
VLanguage Tone
p603
sa(dp604
Vcategory_id
p605
Vsocial_tone
p606
sVtones
p607
(lp608
(dp609
Vtone_name
p610
VOpenness
p611
sVscore
p612
F0.79027999999999998
sVtone_id
p613
Vopenness_big5
p614
sa(dp615
Vtone_name
p616
VConscientiousness
p617
sVscore
p618
F0.26212400000000002
sVtone_id
p619
Vconscientiousness_big5
p620
sa(dp621
Vtone_name
p622
VExtraversion
p623
sVscore
p624
F0.46667900000000001
sVtone_id
p625
Vextraversion_big5
p626
sa(dp627
Vtone_name
p628
VAgreeableness
p629
sVscore
p630
F0.57432300000000003
sVtone_id
p631
Vagreeableness_big5
p632
sa(dp633
Vtone_name
p634
VEmotional Range
p635
sVscore
p636
F0.52535200000000004
sVtone_id
p637
Vemotional_range_big5
p638
sasVcategory_name
p639
VSocial Tone
p640
sasVinput_from
p641
I249
sa(dp642
Vinput_to
p643
I407
sVtext
p644
VAre you ready to go? OK.
p645
sVsentence_id
p646
I5
sVtone_categories
p647
(lp648
(dp649
Vcategory_id
p650
Vemotion_tone
p651
sVtones
p652
(lp653
(dp654
Vtone_name
p655
VAnger
p656
sVscore
p657
F0.11687500000000001
sVtone_id
p658
Vanger
p659
sa(dp660
Vtone_name
p661
VDisgust
p662
sVscore
p663
F0.046641000000000002
sVtone_id
p664
Vdisgust
p665
sa(dp666
Vtone_name
p667
VFear
p668
sVscore
p669
F0.264849
sVtone_id
p670
Vfear
p671
sa(dp672
Vtone_name
p673
VJoy
p674
sVscore
p675
F0.463953
sVtone_id
p676
Vjoy
p677
sa(dp678
Vtone_name
p679
VSadness
p680
sVscore
p681
F0.14366000000000001
sVtone_id
p682
Vsadness
p683
sasVcategory_name
p684
VEmotion Tone
p685
sa(dp686
Vcategory_id
p687
Vlanguage_tone
p688
sVtones
p689
(lp690
(dp691
Vtone_name
p692
VAnalytical
p693
sVscore
p694
F0
sVtone_id
p695
Vanalytical
p696
sa(dp697
Vtone_name
p698
VConfident
p699
sVscore
p700
F0
sVtone_id
p701
Vconfident
p702
sa(dp703
Vtone_name
p704
VTentative
p705
sVscore
p706
F0
sVtone_id
p707
Vtentative
p708
sasVcategory_name
p709
VLanguage Tone
p710
sa(dp711
Vcategory_id
p712
Vsocial_tone
p713
sVtones
p714
(lp715
(dp716
Vtone_name
p717
VOpenness
p718
sVscore
p719
F0.09987
sVtone_id
p720
Vopenness_big5
p721
sa(dp722
Vtone_name
p723
VConscientiousness
p724
sVscore
p725
F0.56934399999999996
sVtone_id
p726
Vconscientiousness_big5
p727
sa(dp728
Vtone_name
p729
VExtraversion
p730
sVscore
p731
F0.71448999999999996
sVtone_id
p732
Vextraversion_big5
p733
sa(dp734
Vtone_name
p735
VAgreeableness
p736
sVscore
p737
F0.71323400000000003
sVtone_id
p738
Vagreeableness_big5
p739
sa(dp740
Vtone_name
p741
VEmotional Range
p742
sVscore
p743
F0.76989600000000002
sVtone_id
p744
Vemotional_range_big5
p745
sasVcategory_name
p746
VSocial Tone
p747
sasVinput_from
p748
I383
sa(dp749
Vinput_to
p750
I451
sVtext
p751
VJust to make it a little bit more exciting.
p752
sVsentence_id
p753
I6
sVtone_categories
p754
(lp755
(dp756
Vcategory_id
p757
Vemotion_tone
p758
sVtones
p759
(lp760
(dp761
Vtone_name
p762
VAnger
p763
sVscore
p764
F0.040973999999999997
sVtone_id
p765
Vanger
p766
sa(dp767
Vtone_name
p768
VDisgust
p769
sVscore
p770
F0.018738000000000001
sVtone_id
p771
Vdisgust
p772
sa(dp773
Vtone_name
p774
VFear
p775
sVscore
p776
F0.10999
sVtone_id
p777
Vfear
p778
sa(dp779
Vtone_name
p780
VJoy
p781
sVscore
p782
F0.68311699999999997
sVtone_id
p783
Vjoy
p784
sa(dp785
Vtone_name
p786
VSadness
p787
sVscore
p788
F0.216642
sVtone_id
p789
Vsadness
p790
sasVcategory_name
p791
VEmotion Tone
p792
sa(dp793
Vcategory_id
p794
Vlanguage_tone
p795
sVtones
p796
(lp797
(dp798
Vtone_name
p799
VAnalytical
p800
sVscore
p801
F0
sVtone_id
p802
Vanalytical
p803
sa(dp804
Vtone_name
p805
VConfident
p806
sVscore
p807
F0
sVtone_id
p808
Vconfident
p809
sa(dp810
Vtone_name
p811
VTentative
p812
sVscore
p813
F0.85662199999999999
sVtone_id
p814
Vtentative
p815
sasVcategory_name
p816
VLanguage Tone
p817
sa(dp818
Vcategory_id
p819
Vsocial_tone
p820
sVtones
p821
(lp822
(dp823
Vtone_name
p824
VOpenness
p825
sVscore
p826
F0.14058499999999999
sVtone_id
p827
Vopenness_big5
p828
sa(dp829
Vtone_name
p830
VConscientiousness
p831
sVscore
p832
F0.077953999999999996
sVtone_id
p833
Vconscientiousness_big5
p834
sa(dp835
Vtone_name
p836
VExtraversion
p837
sVscore
p838
F0.184862
sVtone_id
p839
Vextraversion_big5
p840
sa(dp841
Vtone_name
p842
VAgreeableness
p843
sVscore
p844
F0.65850399999999998
sVtone_id
p845
Vagreeableness_big5
p846
sa(dp847
Vtone_name
p848
VEmotional Range
p849
sVscore
p850
F0.030952
sVtone_id
p851
Vemotional_range_big5
p852
sasVcategory_name
p853
VSocial Tone
p854
sasVinput_from
p855
I408
sa(dp856
Vinput_to
p857
I462
sVtext
p858
VAll right.
p859
sVsentence_id
p860
I7
sVtone_categories
p861
(lp862
(dp863
Vcategory_id
p864
Vemotion_tone
p865
sVtones
p866
(lp867
(dp868
Vtone_name
p869
VAnger
p870
sVscore
p871
F0
sVtone_id
p872
Vanger
p873
sa(dp874
Vtone_name
p875
VDisgust
p876
sVscore
p877
F0
sVtone_id
p878
Vdisgust
p879
sa(dp880
Vtone_name
p881
VFear
p882
sVscore
p883
F0
sVtone_id
p884
Vfear
p885
sa(dp886
Vtone_name
p887
VJoy
p888
sVscore
p889
F1
sVtone_id
p890
Vjoy
p891
sa(dp892
Vtone_name
p893
VSadness
p894
sVscore
p895
F0
sVtone_id
p896
Vsadness
p897
sasVcategory_name
p898
VEmotion Tone
p899
sa(dp900
Vcategory_id
p901
Vlanguage_tone
p902
sVtones
p903
(lp904
(dp905
Vtone_name
p906
VAnalytical
p907
sVscore
p908
F0
sVtone_id
p909
Vanalytical
p910
sa(dp911
Vtone_name
p912
VConfident
p913
sVscore
p914
F0.99693399999999999
sVtone_id
p915
Vconfident
p916
sa(dp917
Vtone_name
p918
VTentative
p919
sVscore
p920
F0
sVtone_id
p921
Vtentative
p922
sasVcategory_name
p923
VLanguage Tone
p924
sa(dp925
Vcategory_id
p926
Vsocial_tone
p927
sVtones
p928
(lp929
(dp930
Vtone_name
p931
VOpenness
p932
sVscore
p933
F0.59588399999999997
sVtone_id
p934
Vopenness_big5
p935
sa(dp936
Vtone_name
p937
VConscientiousness
p938
sVscore
p939
F0.32463599999999998
sVtone_id
p940
Vconscientiousness_big5
p941
sa(dp942
Vtone_name
p943
VExtraversion
p944
sVscore
p945
F0.638687
sVtone_id
p946
Vextraversion_big5
p947
sa(dp948
Vtone_name
p949
VAgreeableness
p950
sVscore
p951
F0.63528300000000004
sVtone_id
p952
Vagreeableness_big5
p953
sa(dp954
Vtone_name
p955
VEmotional Range
p956
sVscore
p957
F0.47052899999999998
sVtone_id
p958
Vemotional_range_big5
p959
sasVcategory_name
p960
VSocial Tone
p961
sasVinput_from
p962
I452
sa(dp963
Vinput_to
p964
I483
sVtext
p965
VTake it away, Rufus.
p966
sVsentence_id
p967
I8
sVtone_categories
p968
(lp969
(dp970
Vcategory_id
p971
Vemotion_tone
p972
sVtones
p973
(lp974
(dp975
Vtone_name
p976
VAnger
p977
sVscore
p978
F0.092619000000000007
sVtone_id
p979
Vanger
p980
sa(dp981
Vtone_name
p982
VDisgust
p983
sVscore
p984
F0.099040000000000003
sVtone_id
p985
Vdisgust
p986
sa(dp987
Vtone_name
p988
VFear
p989
sVscore
p990
F0.53832500000000005
sVtone_id
p991
Vfear
p992
sa(dp993
Vtone_name
p994
VJoy
p995
sVscore
p996
F0.088326000000000002
sVtone_id
p997
Vjoy
p998
sa(dp999
Vtone_name
p1000
VSadness
p1001
sVscore
p1002
F0.272843
sVtone_id
p1003
Vsadness
p1004
sasVcategory_name
p1005
VEmotion Tone
p1006
sa(dp1007
Vcategory_id
p1008
Vlanguage_tone
p1009
sVtones
p1010
(lp1011
(dp1012
Vtone_name
p1013
VAnalytical
p1014
sVscore
p1015
F0
sVtone_id
p1016
Vanalytical
p1017
sa(dp1018
Vtone_name
p1019
VConfident
p1020
sVscore
p1021
F0
sVtone_id
p1022
Vconfident
p1023
sa(dp1024
Vtone_name
p1025
VTentative
p1026
sVscore
p1027
F0
sVtone_id
p1028
Vtentative
p1029
sasVcategory_name
p1030
VLanguage Tone
p1031
sa(dp1032
Vcategory_id
p1033
Vsocial_tone
p1034
sVtones
p1035
(lp1036
(dp1037
Vtone_name
p1038
VOpenness
p1039
sVscore
p1040
F0.231073
sVtone_id
p1041
Vopenness_big5
p1042
sa(dp1043
Vtone_name
p1044
VConscientiousness
p1045
sVscore
p1046
F0.29051300000000002
sVtone_id
p1047
Vconscientiousness_big5
p1048
sa(dp1049
Vtone_name
p1050
VExtraversion
p1051
sVscore
p1052
F0.36354900000000001
sVtone_id
p1053
Vextraversion_big5
p1054
sa(dp1055
Vtone_name
p1056
VAgreeableness
p1057
sVscore
p1058
F0.62410299999999996
sVtone_id
p1059
Vagreeableness_big5
p1060
sa(dp1061
Vtone_name
p1062
VEmotional Range
p1063
sVscore
p1064
F0.19225999999999999
sVtone_id
p1065
Vemotional_range_big5
p1066
sasVcategory_name
p1067
VSocial Tone
p1068
sasVinput_from
p1069
I463
sa(dp1070
Vinput_to
p1071
I494
sVtext
p1072
VAll right.
p1073
sVsentence_id
p1074
I9
sVtone_categories
p1075
(lp1076
(dp1077
Vcategory_id
p1078
Vemotion_tone
p1079
sVtones
p1080
(lp1081
(dp1082
Vtone_name
p1083
VAnger
p1084
sVscore
p1085
F0
sVtone_id
p1086
Vanger
p1087
sa(dp1088
Vtone_name
p1089
VDisgust
p1090
sVscore
p1091
F0
sVtone_id
p1092
Vdisgust
p1093
sa(dp1094
Vtone_name
p1095
VFear
p1096
sVscore
p1097
F0
sVtone_id
p1098
Vfear
p1099
sa(dp1100
Vtone_name
p1101
VJoy
p1102
sVscore
p1103
F1
sVtone_id
p1104
Vjoy
p1105
sa(dp1106
Vtone_name
p1107
VSadness
p1108
sVscore
p1109
F0
sVtone_id
p1110
Vsadness
p1111
sasVcategory_name
p1112
VEmotion Tone
p1113
sa(dp1114
Vcategory_id
p1115
Vlanguage_tone
p1116
sVtones
p1117
(lp1118
(dp1119
Vtone_name
p1120
VAnalytical
p1121
sVscore
p1122
F0
sVtone_id
p1123
Vanalytical
p1124
sa(dp1125
Vtone_name
p1126
VConfident
p1127
sVscore
p1128
F0.99693399999999999
sVtone_id
p1129
Vconfident
p1130
sa(dp1131
Vtone_name
p1132
VTentative
p1133
sVscore
p1134
F0
sVtone_id
p1135
Vtentative
p1136
sasVcategory_name
p1137
VLanguage Tone
p1138
sa(dp1139
Vcategory_id
p1140
Vsocial_tone
p1141
sVtones
p1142
(lp1143
(dp1144
Vtone_name
p1145
VOpenness
p1146
sVscore
p1147
F0.59588399999999997
sVtone_id
p1148
Vopenness_big5
p1149
sa(dp1150
Vtone_name
p1151
VConscientiousness
p1152
sVscore
p1153
F0.32463599999999998
sVtone_id
p1154
Vconscientiousness_big5
p1155
sa(dp1156
Vtone_name
p1157
VExtraversion
p1158
sVscore
p1159
F0.638687
sVtone_id
p1160
Vextraversion_big5
p1161
sa(dp1162
Vtone_name
p1163
VAgreeableness
p1164
sVscore
p1165
F0.63528300000000004
sVtone_id
p1166
Vagreeableness_big5
p1167
sa(dp1168
Vtone_name
p1169
VEmotional Range
p1170
sVscore
p1171
F0.47052899999999998
sVtone_id
p1172
Vemotional_range_big5
p1173
sasVcategory_name
p1174
VSocial Tone
p1175
sasVinput_from
p1176
I484
sa(dp1177
Vinput_to
p1178
I508
sVtext
p1179
VThere you go.
p1180
sVsentence_id
p1181
I10
sVtone_categories
p1182
(lp1183
(dp1184
Vcategory_id
p1185
Vemotion_tone
p1186
sVtones
p1187
(lp1188
(dp1189
Vtone_name
p1190
VAnger
p1191
sVscore
p1192
F0.076135999999999995
sVtone_id
p1193
Vanger
p1194
sa(dp1195
Vtone_name
p1196
VDisgust
p1197
sVscore
p1198
F0.043709999999999999
sVtone_id
p1199
Vdisgust
p1200
sa(dp1201
Vtone_name
p1202
VFear
p1203
sVscore
p1204
F0.17415600000000001
sVtone_id
p1205
Vfear
p1206
sa(dp1207
Vtone_name
p1208
VJoy
p1209
sVscore
p1210
F0.21929599999999999
sVtone_id
p1211
Vjoy
p1212
sa(dp1213
Vtone_name
p1214
VSadness
p1215
sVscore
p1216
F0.53500000000000003
sVtone_id
p1217
Vsadness
p1218
sasVcategory_name
p1219
VEmotion Tone
p1220
sa(dp1221
Vcategory_id
p1222
Vlanguage_tone
p1223
sVtones
p1224
(lp1225
(dp1226
Vtone_name
p1227
VAnalytical
p1228
sVscore
p1229
F0
sVtone_id
p1230
Vanalytical
p1231
sa(dp1232
Vtone_name
p1233
VConfident
p1234
sVscore
p1235
F0
sVtone_id
p1236
Vconfident
p1237
sa(dp1238
Vtone_name
p1239
VTentative
p1240
sVscore
p1241
F0
sVtone_id
p1242
Vtentative
p1243
sasVcategory_name
p1244
VLanguage Tone
p1245
sa(dp1246
Vcategory_id
p1247
Vsocial_tone
p1248
sVtones
p1249
(lp1250
(dp1251
Vtone_name
p1252
VOpenness
p1253
sVscore
p1254
F0.20050799999999999
sVtone_id
p1255
Vopenness_big5
p1256
sa(dp1257
Vtone_name
p1258
VConscientiousness
p1259
sVscore
p1260
F0.47795100000000001
sVtone_id
p1261
Vconscientiousness_big5
p1262
sa(dp1263
Vtone_name
p1264
VExtraversion
p1265
sVscore
p1266
F0.67276400000000003
sVtone_id
p1267
Vextraversion_big5
p1268
sa(dp1269
Vtone_name
p1270
VAgreeableness
p1271
sVscore
p1272
F0.72709999999999997
sVtone_id
p1273
Vagreeableness_big5
p1274
sa(dp1275
Vtone_name
p1276
VEmotional Range
p1277
sVscore
p1278
F0.82254499999999997
sVtone_id
p1279
Vemotional_range_big5
p1280
sasVcategory_name
p1281
VSocial Tone
p1282
sasVinput_from
p1283
I495
sas.