(dp1
Vdocument_tone
p2
(dp3
Vtone_categories
p4
(lp5
(dp6
Vcategory_id
p7
Vemotion_tone
p8
sVtones
p9
(lp10
(dp11
Vtone_name
p12
VAnger
p13
sVscore
p14
F0.078987000000000002
sVtone_id
p15
Vanger
p16
sa(dp17
Vtone_name
p18
VDisgust
p19
sVscore
p20
F0.059520000000000003
sVtone_id
p21
Vdisgust
p22
sa(dp23
Vtone_name
p24
VFear
p25
sVscore
p26
F0.11792900000000001
sVtone_id
p27
Vfear
p28
sa(dp29
Vtone_name
p30
VJoy
p31
sVscore
p32
F0.55767599999999995
sVtone_id
p33
Vjoy
p34
sa(dp35
Vtone_name
p36
VSadness
p37
sVscore
p38
F0.27146199999999998
sVtone_id
p39
Vsadness
p40
sasVcategory_name
p41
VEmotion Tone
p42
sa(dp43
Vcategory_id
p44
Vlanguage_tone
p45
sVtones
p46
(lp47
(dp48
Vtone_name
p49
VAnalytical
p50
sVscore
p51
F0
sVtone_id
p52
Vanalytical
p53
sa(dp54
Vtone_name
p55
VConfident
p56
sVscore
p57
F0.72450099999999995
sVtone_id
p58
Vconfident
p59
sa(dp60
Vtone_name
p61
VTentative
p62
sVscore
p63
F0
sVtone_id
p64
Vtentative
p65
sasVcategory_name
p66
VLanguage Tone
p67
sa(dp68
Vcategory_id
p69
Vsocial_tone
p70
sVtones
p71
(lp72
(dp73
Vtone_name
p74
VOpenness
p75
sVscore
p76
F0.33025599999999999
sVtone_id
p77
Vopenness_big5
p78
sa(dp79
Vtone_name
p80
VConscientiousness
p81
sVscore
p82
F0.68211900000000003
sVtone_id
p83
Vconscientiousness_big5
p84
sa(dp85
Vtone_name
p86
VExtraversion
p87
sVscore
p88
F0.96096599999999999
sVtone_id
p89
Vextraversion_big5
p90
sa(dp91
Vtone_name
p92
VAgreeableness
p93
sVscore
p94
F0.65456999999999999
sVtone_id
p95
Vagreeableness_big5
p96
sa(dp97
Vtone_name
p98
VEmotional Range
p99
sVscore
p100
F0.38500600000000001
sVtone_id
p101
Vemotional_range_big5
p102
sasVcategory_name
p103
VSocial Tone
p104
sassVsentences_tone
p105
(lp106
(dp107
Vinput_to
p108
I5
sVtext
p109
VOkay.
p110
sVsentence_id
p111
I0
sVtone_categories
p112
(lp113
(dp114
Vcategory_id
p115
Vemotion_tone
p116
sVtones
p117
(lp118
(dp119
Vtone_name
p120
VAnger
p121
sVscore
p122
F0
sVtone_id
p123
Vanger
p124
sa(dp125
Vtone_name
p126
VDisgust
p127
sVscore
p128
F0
sVtone_id
p129
Vdisgust
p130
sa(dp131
Vtone_name
p132
VFear
p133
sVscore
p134
F0
sVtone_id
p135
Vfear
p136
sa(dp137
Vtone_name
p138
VJoy
p139
sVscore
p140
F0
sVtone_id
p141
Vjoy
p142
sa(dp143
Vtone_name
p144
VSadness
p145
sVscore
p146
F0
sVtone_id
p147
Vsadness
p148
sasVcategory_name
p149
VEmotion Tone
p150
sa(dp151
Vcategory_id
p152
Vlanguage_tone
p153
sVtones
p154
(lp155
(dp156
Vtone_name
p157
VAnalytical
p158
sVscore
p159
F0
sVtone_id
p160
Vanalytical
p161
sa(dp162
Vtone_name
p163
VConfident
p164
sVscore
p165
F0
sVtone_id
p166
Vconfident
p167
sa(dp168
Vtone_name
p169
VTentative
p170
sVscore
p171
F0
sVtone_id
p172
Vtentative
p173
sasVcategory_name
p174
VLanguage Tone
p175
sa(dp176
Vcategory_id
p177
Vsocial_tone
p178
sVtones
p179
(lp180
(dp181
Vtone_name
p182
VOpenness
p183
sVscore
p184
F0.28856700000000002
sVtone_id
p185
Vopenness_big5
p186
sa(dp187
Vtone_name
p188
VConscientiousness
p189
sVscore
p190
F0.27443400000000001
sVtone_id
p191
Vconscientiousness_big5
p192
sa(dp193
Vtone_name
p194
VExtraversion
p195
sVscore
p196
F0.54332199999999997
sVtone_id
p197
Vextraversion_big5
p198
sa(dp199
Vtone_name
p200
VAgreeableness
p201
sVscore
p202
F0.59948299999999999
sVtone_id
p203
Vagreeableness_big5
p204
sa(dp205
Vtone_name
p206
VEmotional Range
p207
sVscore
p208
F0.29292099999999999
sVtone_id
p209
Vemotional_range_big5
p210
sasVcategory_name
p211
VSocial Tone
p212
sasVinput_from
p213
I0
sa(dp214
Vinput_to
p215
I326
sVtext
p216
VStrolling along in Central Park   Everyone's out today   The daisies and dogwoods are all in bloom   Oh, what a glorious day   For picnics and Frisbees and roller skaters,   Friends and lovers and lonely sunbathers   Everyone's out in merry Manhattan in January     I brought the iced tea;   Did you bring the bug spray?
p217
sVsentence_id
p218
I1
sVtone_categories
p219
(lp220
(dp221
Vcategory_id
p222
Vemotion_tone
p223
sVtones
p224
(lp225
(dp226
Vtone_name
p227
VAnger
p228
sVscore
p229
F0.014095
sVtone_id
p230
Vanger
p231
sa(dp232
Vtone_name
p233
VDisgust
p234
sVscore
p235
F0.048205999999999999
sVtone_id
p236
Vdisgust
p237
sa(dp238
Vtone_name
p239
VFear
p240
sVscore
p241
F0.048418000000000003
sVtone_id
p242
Vfear
p243
sa(dp244
Vtone_name
p245
VJoy
p246
sVscore
p247
F0.65232599999999996
sVtone_id
p248
Vjoy
p249
sa(dp250
Vtone_name
p251
VSadness
p252
sVscore
p253
F0.25527
sVtone_id
p254
Vsadness
p255
sasVcategory_name
p256
VEmotion Tone
p257
sa(dp258
Vcategory_id
p259
Vlanguage_tone
p260
sVtones
p261
(lp262
(dp263
Vtone_name
p264
VAnalytical
p265
sVscore
p266
F0
sVtone_id
p267
Vanalytical
p268
sa(dp269
Vtone_name
p270
VConfident
p271
sVscore
p272
F0.23860799999999999
sVtone_id
p273
Vconfident
p274
sa(dp275
Vtone_name
p276
VTentative
p277
sVscore
p278
F0
sVtone_id
p279
Vtentative
p280
sasVcategory_name
p281
VLanguage Tone
p282
sa(dp283
Vcategory_id
p284
Vsocial_tone
p285
sVtones
p286
(lp287
(dp288
Vtone_name
p289
VOpenness
p290
sVscore
p291
F0.54245900000000002
sVtone_id
p292
Vopenness_big5
p293
sa(dp294
Vtone_name
p295
VConscientiousness
p296
sVscore
p297
F0.65423500000000001
sVtone_id
p298
Vconscientiousness_big5
p299
sa(dp300
Vtone_name
p301
VExtraversion
p302
sVscore
p303
F0.94457599999999997
sVtone_id
p304
Vextraversion_big5
p305
sa(dp306
Vtone_name
p307
VAgreeableness
p308
sVscore
p309
F0.41586600000000001
sVtone_id
p310
Vagreeableness_big5
p311
sa(dp312
Vtone_name
p313
VEmotional Range
p314
sVscore
p315
F0.205766
sVtone_id
p316
Vemotional_range_big5
p317
sasVcategory_name
p318
VSocial Tone
p319
sasVinput_from
p320
I6
sa(dp321
Vinput_to
p322
I443
sVtext
p323
VThe flies are the size of your head   Next to the palm tree,   Did you see the 'gators   Looking happy and well fed?
p324
sVsentence_id
p325
I2
sVtone_categories
p326
(lp327
(dp328
Vcategory_id
p329
Vemotion_tone
p330
sVtones
p331
(lp332
(dp333
Vtone_name
p334
VAnger
p335
sVscore
p336
F0.019584000000000001
sVtone_id
p337
Vanger
p338
sa(dp339
Vtone_name
p340
VDisgust
p341
sVscore
p342
F0.048780999999999998
sVtone_id
p343
Vdisgust
p344
sa(dp345
Vtone_name
p346
VFear
p347
sVscore
p348
F0.17012099999999999
sVtone_id
p349
Vfear
p350
sa(dp351
Vtone_name
p352
VJoy
p353
sVscore
p354
F0.66086900000000004
sVtone_id
p355
Vjoy
p356
sa(dp357
Vtone_name
p358
VSadness
p359
sVscore
p360
F0.16437299999999999
sVtone_id
p361
Vsadness
p362
sasVcategory_name
p363
VEmotion Tone
p364
sa(dp365
Vcategory_id
p366
Vlanguage_tone
p367
sVtones
p368
(lp369
(dp370
Vtone_name
p371
VAnalytical
p372
sVscore
p373
F0.012052
sVtone_id
p374
Vanalytical
p375
sa(dp376
Vtone_name
p377
VConfident
p378
sVscore
p379
F0
sVtone_id
p380
Vconfident
p381
sa(dp382
Vtone_name
p383
VTentative
p384
sVscore
p385
F0
sVtone_id
p386
Vtentative
p387
sasVcategory_name
p388
VLanguage Tone
p389
sa(dp390
Vcategory_id
p391
Vsocial_tone
p392
sVtones
p393
(lp394
(dp395
Vtone_name
p396
VOpenness
p397
sVscore
p398
F0.45069300000000001
sVtone_id
p399
Vopenness_big5
p400
sa(dp401
Vtone_name
p402
VConscientiousness
p403
sVscore
p404
F0.97062599999999999
sVtone_id
p405
Vconscientiousness_big5
p406
sa(dp407
Vtone_name
p408
VExtraversion
p409
sVscore
p410
F0.93905400000000006
sVtone_id
p411
Vextraversion_big5
p412
sa(dp413
Vtone_name
p414
VAgreeableness
p415
sVscore
p416
F0.61519900000000005
sVtone_id
p417
Vagreeableness_big5
p418
sa(dp419
Vtone_name
p420
VEmotional Range
p421
sVscore
p422
F0.97213400000000005
sVtone_id
p423
Vemotional_range_big5
p424
sasVcategory_name
p425
VSocial Tone
p426
sasVinput_from
p427
I327
sa(dp428
Vinput_to
p429
I500
sVtext
p430
VEveryone's out in merry Manhattan in January   Everyone!
p431
sVsentence_id
p432
I3
sVtone_categories
p433
(lp434
(dp435
Vcategory_id
p436
Vemotion_tone
p437
sVtones
p438
(lp439
(dp440
Vtone_name
p441
VAnger
p442
sVscore
p443
F0.050957000000000002
sVtone_id
p444
Vanger
p445
sa(dp446
Vtone_name
p447
VDisgust
p448
sVscore
p449
F0.044686999999999998
sVtone_id
p450
Vdisgust
p451
sa(dp452
Vtone_name
p453
VFear
p454
sVscore
p455
F0.069217000000000001
sVtone_id
p456
Vfear
p457
sa(dp458
Vtone_name
p459
VJoy
p460
sVscore
p461
F0.74787599999999999
sVtone_id
p462
Vjoy
p463
sa(dp464
Vtone_name
p465
VSadness
p466
sVscore
p467
F0.13367000000000001
sVtone_id
p468
Vsadness
p469
sasVcategory_name
p470
VEmotion Tone
p471
sa(dp472
Vcategory_id
p473
Vlanguage_tone
p474
sVtones
p475
(lp476
(dp477
Vtone_name
p478
VAnalytical
p479
sVscore
p480
F0
sVtone_id
p481
Vanalytical
p482
sa(dp483
Vtone_name
p484
VConfident
p485
sVscore
p486
F0
sVtone_id
p487
Vconfident
p488
sa(dp489
Vtone_name
p490
VTentative
p491
sVscore
p492
F0
sVtone_id
p493
Vtentative
p494
sasVcategory_name
p495
VLanguage Tone
p496
sa(dp497
Vcategory_id
p498
Vsocial_tone
p499
sVtones
p500
(lp501
(dp502
Vtone_name
p503
VOpenness
p504
sVscore
p505
F0.15981300000000001
sVtone_id
p506
Vopenness_big5
p507
sa(dp508
Vtone_name
p509
VConscientiousness
p510
sVscore
p511
F0.25219399999999997
sVtone_id
p512
Vconscientiousness_big5
p513
sa(dp514
Vtone_name
p515
VExtraversion
p516
sVscore
p517
F0.53446499999999997
sVtone_id
p518
Vextraversion_big5
p519
sa(dp520
Vtone_name
p521
VAgreeableness
p522
sVscore
p523
F0.57637499999999997
sVtone_id
p524
Vagreeableness_big5
p525
sa(dp526
Vtone_name
p527
VEmotional Range
p528
sVscore
p529
F0.103412
sVtone_id
p530
Vemotional_range_big5
p531
sasVcategory_name
p532
VSocial Tone
p533
sasVinput_from
p534
I444
sa(dp535
Vinput_to
p536
I609
sVtext
p537
VMy preacher said,   Don't you worry   The scientists have it all wrong   And so, who cares it's winter here?
p538
sVsentence_id
p539
I4
sVtone_categories
p540
(lp541
(dp542
Vcategory_id
p543
Vemotion_tone
p544
sVtones
p545
(lp546
(dp547
Vtone_name
p548
VAnger
p549
sVscore
p550
F0.173931
sVtone_id
p551
Vanger
p552
sa(dp553
Vtone_name
p554
VDisgust
p555
sVscore
p556
F0.087876999999999997
sVtone_id
p557
Vdisgust
p558
sa(dp559
Vtone_name
p560
VFear
p561
sVscore
p562
F0.080004000000000006
sVtone_id
p563
Vfear
p564
sa(dp565
Vtone_name
p566
VJoy
p567
sVscore
p568
F0.29188700000000001
sVtone_id
p569
Vjoy
p570
sa(dp571
Vtone_name
p572
VSadness
p573
sVscore
p574
F0.428535
sVtone_id
p575
Vsadness
p576
sasVcategory_name
p577
VEmotion Tone
p578
sa(dp579
Vcategory_id
p580
Vlanguage_tone
p581
sVtones
p582
(lp583
(dp584
Vtone_name
p585
VAnalytical
p586
sVscore
p587
F0
sVtone_id
p588
Vanalytical
p589
sa(dp590
Vtone_name
p591
VConfident
p592
sVscore
p593
F0.63898699999999997
sVtone_id
p594
Vconfident
p595
sa(dp596
Vtone_name
p597
VTentative
p598
sVscore
p599
F0
sVtone_id
p600
Vtentative
p601
sasVcategory_name
p602
VLanguage Tone
p603
sa(dp604
Vcategory_id
p605
Vsocial_tone
p606
sVtones
p607
(lp608
(dp609
Vtone_name
p610
VOpenness
p611
sVscore
p612
F0.54590499999999997
sVtone_id
p613
Vopenness_big5
p614
sa(dp615
Vtone_name
p616
VConscientiousness
p617
sVscore
p618
F0.952538
sVtone_id
p619
Vconscientiousness_big5
p620
sa(dp621
Vtone_name
p622
VExtraversion
p623
sVscore
p624
F0.43468600000000002
sVtone_id
p625
Vextraversion_big5
p626
sa(dp627
Vtone_name
p628
VAgreeableness
p629
sVscore
p630
F0.79970399999999997
sVtone_id
p631
Vagreeableness_big5
p632
sa(dp633
Vtone_name
p634
VEmotional Range
p635
sVscore
p636
F0.51748300000000003
sVtone_id
p637
Vemotional_range_big5
p638
sasVcategory_name
p639
VSocial Tone
p640
sasVinput_from
p641
I501
sa(dp642
Vinput_to
p643
I711
sVtext
p644
VAnd I have my halter-top on   I have my halter-top on   Everyone's out in merry Manhattan in January.
p645
sVsentence_id
p646
I5
sVtone_categories
p647
(lp648
(dp649
Vcategory_id
p650
Vemotion_tone
p651
sVtones
p652
(lp653
(dp654
Vtone_name
p655
VAnger
p656
sVscore
p657
F0.10030699999999999
sVtone_id
p658
Vanger
p659
sa(dp660
Vtone_name
p661
VDisgust
p662
sVscore
p663
F0.046471999999999999
sVtone_id
p664
Vdisgust
p665
sa(dp666
Vtone_name
p667
VFear
p668
sVscore
p669
F0.167017
sVtone_id
p670
Vfear
p671
sa(dp672
Vtone_name
p673
VJoy
p674
sVscore
p675
F0.44327299999999997
sVtone_id
p676
Vjoy
p677
sa(dp678
Vtone_name
p679
VSadness
p680
sVscore
p681
F0.26804600000000001
sVtone_id
p682
Vsadness
p683
sasVcategory_name
p684
VEmotion Tone
p685
sa(dp686
Vcategory_id
p687
Vlanguage_tone
p688
sVtones
p689
(lp690
(dp691
Vtone_name
p692
VAnalytical
p693
sVscore
p694
F0
sVtone_id
p695
Vanalytical
p696
sa(dp697
Vtone_name
p698
VConfident
p699
sVscore
p700
F0
sVtone_id
p701
Vconfident
p702
sa(dp703
Vtone_name
p704
VTentative
p705
sVscore
p706
F0
sVtone_id
p707
Vtentative
p708
sasVcategory_name
p709
VLanguage Tone
p710
sa(dp711
Vcategory_id
p712
Vsocial_tone
p713
sVtones
p714
(lp715
(dp716
Vtone_name
p717
VOpenness
p718
sVscore
p719
F0.065375000000000003
sVtone_id
p720
Vopenness_big5
p721
sa(dp722
Vtone_name
p723
VConscientiousness
p724
sVscore
p725
F0.54891500000000004
sVtone_id
p726
Vconscientiousness_big5
p727
sa(dp728
Vtone_name
p729
VExtraversion
p730
sVscore
p731
F0.70712900000000001
sVtone_id
p732
Vextraversion_big5
p733
sa(dp734
Vtone_name
p735
VAgreeableness
p736
sVscore
p737
F0.062613000000000002
sVtone_id
p738
Vagreeableness_big5
p739
sa(dp740
Vtone_name
p741
VEmotional Range
p742
sVscore
p743
F0.191247
sVtone_id
p744
Vemotional_range_big5
p745
sasVcategory_name
p746
VSocial Tone
p747
sasVinput_from
p748
I610
sa(dp749
Vinput_to
p750
I740
sVtext
p751
VChris Anderson: Jill Sobule!
p752
sVsentence_id
p753
I6
sVtone_categories
p754
(lp755
(dp756
Vcategory_id
p757
Vemotion_tone
p758
sVtones
p759
(lp760
(dp761
Vtone_name
p762
VAnger
p763
sVscore
p764
F0.085285
sVtone_id
p765
Vanger
p766
sa(dp767
Vtone_name
p768
VDisgust
p769
sVscore
p770
F0.077738000000000002
sVtone_id
p771
Vdisgust
p772
sa(dp773
Vtone_name
p774
VFear
p775
sVscore
p776
F0.16234999999999999
sVtone_id
p777
Vfear
p778
sa(dp779
Vtone_name
p780
VJoy
p781
sVscore
p782
F0.323243
sVtone_id
p783
Vjoy
p784
sa(dp785
Vtone_name
p786
VSadness
p787
sVscore
p788
F0.401893
sVtone_id
p789
Vsadness
p790
sasVcategory_name
p791
VEmotion Tone
p792
sa(dp793
Vcategory_id
p794
Vlanguage_tone
p795
sVtones
p796
(lp797
(dp798
Vtone_name
p799
VAnalytical
p800
sVscore
p801
F0
sVtone_id
p802
Vanalytical
p803
sa(dp804
Vtone_name
p805
VConfident
p806
sVscore
p807
F0
sVtone_id
p808
Vconfident
p809
sa(dp810
Vtone_name
p811
VTentative
p812
sVscore
p813
F0
sVtone_id
p814
Vtentative
p815
sasVcategory_name
p816
VLanguage Tone
p817
sa(dp818
Vcategory_id
p819
Vsocial_tone
p820
sVtones
p821
(lp822
(dp823
Vtone_name
p824
VOpenness
p825
sVscore
p826
F0.31605699999999998
sVtone_id
p827
Vopenness_big5
p828
sa(dp829
Vtone_name
p830
VConscientiousness
p831
sVscore
p832
F0.26810800000000001
sVtone_id
p833
Vconscientiousness_big5
p834
sa(dp835
Vtone_name
p836
VExtraversion
p837
sVscore
p838
F0.59614800000000001
sVtone_id
p839
Vextraversion_big5
p840
sa(dp841
Vtone_name
p842
VAgreeableness
p843
sVscore
p844
F0.62288299999999996
sVtone_id
p845
Vagreeableness_big5
p846
sa(dp847
Vtone_name
p848
VEmotional Range
p849
sVscore
p850
F0.244174
sVtone_id
p851
Vemotional_range_big5
p852
sasVcategory_name
p853
VSocial Tone
p854
sasVinput_from
p855
I712
sas.