(dp1
Vdocument_tone
p2
(dp3
Vtone_categories
p4
(lp5
(dp6
Vcategory_id
p7
Vemotion_tone
p8
sVtones
p9
(lp10
(dp11
Vtone_name
p12
VAnger
p13
sVscore
p14
F0.29020200000000002
sVtone_id
p15
Vanger
p16
sa(dp17
Vtone_name
p18
VDisgust
p19
sVscore
p20
F0.0035630000000000002
sVtone_id
p21
Vdisgust
p22
sa(dp23
Vtone_name
p24
VFear
p25
sVscore
p26
F0.31173299999999998
sVtone_id
p27
Vfear
p28
sa(dp29
Vtone_name
p30
VJoy
p31
sVscore
p32
F0.100606
sVtone_id
p33
Vjoy
p34
sa(dp35
Vtone_name
p36
VSadness
p37
sVscore
p38
F0.32449
sVtone_id
p39
Vsadness
p40
sasVcategory_name
p41
VEmotion Tone
p42
sa(dp43
Vcategory_id
p44
Vlanguage_tone
p45
sVtones
p46
(lp47
(dp48
Vtone_name
p49
VAnalytical
p50
sVscore
p51
F0.49890099999999998
sVtone_id
p52
Vanalytical
p53
sa(dp54
Vtone_name
p55
VConfident
p56
sVscore
p57
F0.28056199999999998
sVtone_id
p58
Vconfident
p59
sa(dp60
Vtone_name
p61
VTentative
p62
sVscore
p63
F0
sVtone_id
p64
Vtentative
p65
sasVcategory_name
p66
VLanguage Tone
p67
sa(dp68
Vcategory_id
p69
Vsocial_tone
p70
sVtones
p71
(lp72
(dp73
Vtone_name
p74
VOpenness
p75
sVscore
p76
F0.54823200000000005
sVtone_id
p77
Vopenness_big5
p78
sa(dp79
Vtone_name
p80
VConscientiousness
p81
sVscore
p82
F0.233658
sVtone_id
p83
Vconscientiousness_big5
p84
sa(dp85
Vtone_name
p86
VExtraversion
p87
sVscore
p88
F0.48103000000000001
sVtone_id
p89
Vextraversion_big5
p90
sa(dp91
Vtone_name
p92
VAgreeableness
p93
sVscore
p94
F0.52346000000000004
sVtone_id
p95
Vagreeableness_big5
p96
sa(dp97
Vtone_name
p98
VEmotional Range
p99
sVscore
p100
F0.101006
sVtone_id
p101
Vemotional_range_big5
p102
sasVcategory_name
p103
VSocial Tone
p104
sassVsentences_tone
p105
(lp106
(dp107
Vinput_to
p108
I783
sVtext
p109
V(Music by Anna Oxygen) (Music: "Shells" by Mirah)  You learned how to be a diver   Put on a mask and believe   Gather a dinner of shells for me   Take the tank down so you can breathe   Below   Movements slow   You are an island   All the secrets until then   Pried open I held them   Until they were still   Until they were still   Until they were still   (Music by Caroline Lufkin) (Music by Anna Oxygen)  Dream time, I will find you   You are shady, you are new   I'm not so good at mornings   I can see too clearly   I prefer the nighttime   Dark and blurry   Falling night   Hovering light   Calling night   Hovering light   In the moontime I will give up my life   And in the deep dreams   You will find me   [Excerpts from "Myth and Infrastructure"] Bruno Giussani: Come back.
p110
sVsentence_id
p111
I0
sVtone_categories
p112
(lp113
(dp114
Vcategory_id
p115
Vemotion_tone
p116
sVtones
p117
(lp118
(dp119
Vtone_name
p120
VAnger
p121
sVscore
p122
F0.265571
sVtone_id
p123
Vanger
p124
sa(dp125
Vtone_name
p126
VDisgust
p127
sVscore
p128
F0.0035699999999999998
sVtone_id
p129
Vdisgust
p130
sa(dp131
Vtone_name
p132
VFear
p133
sVscore
p134
F0.31479699999999999
sVtone_id
p135
Vfear
p136
sa(dp137
Vtone_name
p138
VJoy
p139
sVscore
p140
F0.090548000000000003
sVtone_id
p141
Vjoy
p142
sa(dp143
Vtone_name
p144
VSadness
p145
sVscore
p146
F0.357879
sVtone_id
p147
Vsadness
p148
sasVcategory_name
p149
VEmotion Tone
p150
sa(dp151
Vcategory_id
p152
Vlanguage_tone
p153
sVtones
p154
(lp155
(dp156
Vtone_name
p157
VAnalytical
p158
sVscore
p159
F0.34418700000000002
sVtone_id
p160
Vanalytical
p161
sa(dp162
Vtone_name
p163
VConfident
p164
sVscore
p165
F0.0067320000000000001
sVtone_id
p166
Vconfident
p167
sa(dp168
Vtone_name
p169
VTentative
p170
sVscore
p171
F0
sVtone_id
p172
Vtentative
p173
sasVcategory_name
p174
VLanguage Tone
p175
sa(dp176
Vcategory_id
p177
Vsocial_tone
p178
sVtones
p179
(lp180
(dp181
Vtone_name
p182
VOpenness
p183
sVscore
p184
F0.60387400000000002
sVtone_id
p185
Vopenness_big5
p186
sa(dp187
Vtone_name
p188
VConscientiousness
p189
sVscore
p190
F0.52200100000000005
sVtone_id
p191
Vconscientiousness_big5
p192
sa(dp193
Vtone_name
p194
VExtraversion
p195
sVscore
p196
F0.631413
sVtone_id
p197
Vextraversion_big5
p198
sa(dp199
Vtone_name
p200
VAgreeableness
p201
sVscore
p202
F0.52303100000000002
sVtone_id
p203
Vagreeableness_big5
p204
sa(dp205
Vtone_name
p206
VEmotional Range
p207
sVscore
p208
F0.18439
sVtone_id
p209
Vemotional_range_big5
p210
sasVcategory_name
p211
VSocial Tone
p212
sasVinput_from
p213
I0
sa(dp214
Vinput_to
p215
I798
sVtext
p216
VMiwa Matreyek!
p217
sVsentence_id
p218
I1
sVtone_categories
p219
(lp220
(dp221
Vcategory_id
p222
Vemotion_tone
p223
sVtones
p224
(lp225
(dp226
Vtone_name
p227
VAnger
p228
sVscore
p229
F0.13535
sVtone_id
p230
Vanger
p231
sa(dp232
Vtone_name
p233
VDisgust
p234
sVscore
p235
F0.067192000000000002
sVtone_id
p236
Vdisgust
p237
sa(dp238
Vtone_name
p239
VFear
p240
sVscore
p241
F0.088209999999999997
sVtone_id
p242
Vfear
p243
sa(dp244
Vtone_name
p245
VJoy
p246
sVscore
p247
F0.60689199999999999
sVtone_id
p248
Vjoy
p249
sa(dp250
Vtone_name
p251
VSadness
p252
sVscore
p253
F0.192494
sVtone_id
p254
Vsadness
p255
sasVcategory_name
p256
VEmotion Tone
p257
sa(dp258
Vcategory_id
p259
Vlanguage_tone
p260
sVtones
p261
(lp262
(dp263
Vtone_name
p264
VAnalytical
p265
sVscore
p266
F0
sVtone_id
p267
Vanalytical
p268
sa(dp269
Vtone_name
p270
VConfident
p271
sVscore
p272
F0
sVtone_id
p273
Vconfident
p274
sa(dp275
Vtone_name
p276
VTentative
p277
sVscore
p278
F0
sVtone_id
p279
Vtentative
p280
sasVcategory_name
p281
VLanguage Tone
p282
sa(dp283
Vcategory_id
p284
Vsocial_tone
p285
sVtones
p286
(lp287
(dp288
Vtone_name
p289
VOpenness
p290
sVscore
p291
F0.29848999999999998
sVtone_id
p292
Vopenness_big5
p293
sa(dp294
Vtone_name
p295
VConscientiousness
p296
sVscore
p297
F0.27440399999999998
sVtone_id
p298
Vconscientiousness_big5
p299
sa(dp300
Vtone_name
p301
VExtraversion
p302
sVscore
p303
F0.54152500000000003
sVtone_id
p304
Vextraversion_big5
p305
sa(dp306
Vtone_name
p307
VAgreeableness
p308
sVscore
p309
F0.59946900000000003
sVtone_id
p310
Vagreeableness_big5
p311
sa(dp312
Vtone_name
p313
VEmotional Range
p314
sVscore
p315
F0.267067
sVtone_id
p316
Vemotional_range_big5
p317
sasVcategory_name
p318
VSocial Tone
p319
sasVinput_from
p320
I784
sas.